In archive libwifi.a:

zjoin.o:     file format elf32-littlearm


Disassembly of section .text:

00000000 <disp_ssid>:
   0:	e5d01000 	ldrb	r1, [r0]
   4:	e3510000 	cmp	r1, #0
   8:	0a000010 	beq	50 <disp_ssid+0x50>
   c:	e92d4070 	push	{r4, r5, r6, lr}
  10:	e1a04000 	mov	r4, r0
  14:	e5d00001 	ldrb	r0, [r0, #1]
  18:	e3500000 	cmp	r0, #0
  1c:	0a000008 	beq	44 <disp_ssid+0x44>
  20:	e3510020 	cmp	r1, #32
  24:	ca00000b 	bgt	58 <disp_ssid+0x58>
  28:	e0845001 	add	r5, r4, r1
  2c:	e2844001 	add	r4, r4, #1
  30:	ebfffffe 	bl	0 <putchar>
  34:	e1540005 	cmp	r4, r5
  38:	08bd8070 	popeq	{r4, r5, r6, pc}
  3c:	e5f40001 	ldrb	r0, [r4, #1]!
  40:	eafffffa 	b	30 <disp_ssid+0x30>
  44:	e59f0018 	ldr	r0, [pc, #24]	; 64 <disp_ssid+0x64>
  48:	e8bd4070 	pop	{r4, r5, r6, lr}
  4c:	eafffffe 	b	0 <printf>
  50:	e59f000c 	ldr	r0, [pc, #12]	; 64 <disp_ssid+0x64>
  54:	eafffffe 	b	0 <printf>
  58:	e59f0008 	ldr	r0, [pc, #8]	; 68 <disp_ssid+0x68>
  5c:	e8bd4070 	pop	{r4, r5, r6, lr}
  60:	eafffffe 	b	0 <printf>
  64:	00000000 	.word	0x00000000
  68:	0000000c 	.word	0x0000000c

0000006c <disp_mac_addr>:
  6c:	e92d47f0 	push	{r4, r5, r6, r7, r8, r9, sl, lr}
  70:	e1a06000 	mov	r6, r0
  74:	e2404001 	sub	r4, r0, #1
  78:	e59f9040 	ldr	r9, [pc, #64]	; c0 <disp_mac_addr+0x54>
  7c:	e59f7040 	ldr	r7, [pc, #64]	; c4 <disp_mac_addr+0x58>
  80:	e59f8040 	ldr	r8, [pc, #64]	; c8 <disp_mac_addr+0x5c>
  84:	ea000004 	b	9c <disp_mac_addr+0x30>
  88:	e2444004 	sub	r4, r4, #4
  8c:	ebfffffe 	bl	0 <printf>
  90:	e1540006 	cmp	r4, r6
  94:	08bd87f0 	popeq	{r4, r5, r6, r7, r8, r9, sl, pc}
  98:	e1a04005 	mov	r4, r5
  9c:	e2845001 	add	r5, r4, #1
  a0:	e1550006 	cmp	r5, r6
  a4:	e1a01008 	mov	r1, r8
  a8:	e1a00007 	mov	r0, r7
  ac:	e5d42001 	ldrb	r2, [r4, #1]
  b0:	1afffff4 	bne	88 <disp_mac_addr+0x1c>
  b4:	e1a01009 	mov	r1, r9
  b8:	ebfffffe 	bl	0 <printf>
  bc:	eafffff5 	b	98 <disp_mac_addr+0x2c>
  c0:	0000002c 	.word	0x0000002c
  c4:	00000024 	.word	0x00000024
  c8:	00000020 	.word	0x00000020

000000cc <disp_block>:
  cc:	e92d41f0 	push	{r4, r5, r6, r7, r8, lr}
  d0:	e2516000 	subs	r6, r1, #0
  d4:	d8bd81f0 	pople	{r4, r5, r6, r7, r8, pc}
  d8:	e1a07000 	mov	r7, r0
  dc:	e3a05000 	mov	r5, #0
  e0:	e0464005 	sub	r4, r6, r5
  e4:	e3540020 	cmp	r4, #32
  e8:	a3a04020 	movge	r4, #32
  ec:	e1a01004 	mov	r1, r4
  f0:	e0870005 	add	r0, r7, r5
  f4:	ebfffffe 	bl	0 <disp_bytes>
  f8:	ebfffffe 	bl	0 <__getreent>
  fc:	e0855004 	add	r5, r5, r4
 100:	e5900008 	ldr	r0, [r0, #8]
 104:	ebfffffe 	bl	0 <fflush>
 108:	e1560005 	cmp	r6, r5
 10c:	e3a0000a 	mov	r0, #10
 110:	d8bd81f0 	pople	{r4, r5, r6, r7, r8, pc}
 114:	ebfffffe 	bl	0 <putchar>
 118:	eafffff0 	b	e0 <disp_block+0x14>

0000011c <gdb_break>:
 11c:	e12fff1e 	bx	lr

00000120 <firm_open_read>:
 120:	e59f3004 	ldr	r3, [pc, #4]	; 12c <firm_open_read+0xc>
 124:	e5830000 	str	r0, [r3]
 128:	e12fff1e 	bx	lr
 12c:	00000000 	.word	0x00000000

00000130 <firm_read>:
 130:	e92d4070 	push	{r4, r5, r6, lr}
 134:	e1a05001 	mov	r5, r1
 138:	e59f4020 	ldr	r4, [pc, #32]	; 160 <firm_read+0x30>
 13c:	e59f3020 	ldr	r3, [pc, #32]	; 164 <firm_read+0x34>
 140:	e1a02005 	mov	r2, r5
 144:	e5941000 	ldr	r1, [r4]
 148:	e0831001 	add	r1, r3, r1
 14c:	ebfffffe 	bl	0 <memcpy>
 150:	e5941000 	ldr	r1, [r4]
 154:	e0811005 	add	r1, r1, r5
 158:	e5841000 	str	r1, [r4]
 15c:	e8bd8070 	pop	{r4, r5, r6, pc}
	...

00000168 <firm_close>:
 168:	e12fff1e 	bx	lr

0000016c <write_firmware>:
 16c:	e92d4ff8 	push	{r3, r4, r5, r6, r7, r8, r9, sl, fp, lr}
 170:	e3a03000 	mov	r3, #0
 174:	e59f70c4 	ldr	r7, [pc, #196]	; 240 <write_firmware+0xd4>
 178:	e59fa0c4 	ldr	sl, [pc, #196]	; 244 <write_firmware+0xd8>
 17c:	e59f60c4 	ldr	r6, [pc, #196]	; 248 <write_firmware+0xdc>
 180:	e1a05003 	mov	r5, r3
 184:	e5873000 	str	r3, [r7]
 188:	ea000011 	b	1d4 <write_firmware+0x68>
 18c:	e5974000 	ldr	r4, [r7]
 190:	e1a0830b 	lsl	r8, fp, #6
 194:	e08a1004 	add	r1, sl, r4
 198:	e1a02008 	mov	r2, r8
 19c:	ebfffffe 	bl	0 <memcpy>
 1a0:	e0844008 	add	r4, r4, r8
 1a4:	e1a0300b 	mov	r3, fp
 1a8:	e2891902 	add	r1, r9, #32768	; 0x8000
 1ac:	e1a02006 	mov	r2, r6
 1b0:	e3a00001 	mov	r0, #1
 1b4:	e5874000 	str	r4, [r7]
 1b8:	ebfffffe 	bl	0 <sdio_write_blocks>
 1bc:	e3500000 	cmp	r0, #0
 1c0:	0a00001c 	beq	238 <write_firmware+0xcc>
 1c4:	e59f3080 	ldr	r3, [pc, #128]	; 24c <write_firmware+0xe0>
 1c8:	e0855008 	add	r5, r5, r8
 1cc:	e1550003 	cmp	r5, r3
 1d0:	ca000018 	bgt	238 <write_firmware+0xcc>
 1d4:	e1a00005 	mov	r0, r5
 1d8:	ebfffffe 	bl	0 <sdio_bak_addr>
 1dc:	e59f406c 	ldr	r4, [pc, #108]	; 250 <write_firmware+0xe4>
 1e0:	e0444005 	sub	r4, r4, r5
 1e4:	e3540901 	cmp	r4, #16384	; 0x4000
 1e8:	23a04901 	movcs	r4, #16384	; 0x4000
 1ec:	e1b0b344 	asrs	fp, r4, #6
 1f0:	e1a09000 	mov	r9, r0
 1f4:	e1a00006 	mov	r0, r6
 1f8:	1affffe3 	bne	18c <write_firmware+0x20>
 1fc:	e5978000 	ldr	r8, [r7]
 200:	e1a02004 	mov	r2, r4
 204:	e08a1008 	add	r1, sl, r8
 208:	ebfffffe 	bl	0 <memcpy>
 20c:	e0848008 	add	r8, r4, r8
 210:	e1a03004 	mov	r3, r4
 214:	e2891902 	add	r1, r9, #32768	; 0x8000
 218:	e1a02006 	mov	r2, r6
 21c:	e3a00001 	mov	r0, #1
 220:	e5878000 	str	r8, [r7]
 224:	ebfffffe 	bl	0 <sdio_cmd53_write>
 228:	e59f301c 	ldr	r3, [pc, #28]	; 24c <write_firmware+0xe0>
 22c:	e0855004 	add	r5, r5, r4
 230:	e1550003 	cmp	r5, r3
 234:	daffffe6 	ble	1d4 <write_firmware+0x68>
 238:	e1a00005 	mov	r0, r5
 23c:	e8bd8ff8 	pop	{r3, r4, r5, r6, r7, r8, r9, sl, fp, pc}
	...
 24c:	0005ee83 	.word	0x0005ee83
 250:	0005ee84 	.word	0x0005ee84

00000254 <write_nvram>:
 254:	e92d41f0 	push	{r4, r5, r6, r7, r8, lr}
 258:	e3a0091e 	mov	r0, #491520	; 0x78000
 25c:	e59f6050 	ldr	r6, [pc, #80]	; 2b4 <write_nvram+0x60>
 260:	ebfffffe 	bl	0 <sdio_bak_window>
 264:	e3a04000 	mov	r4, #0
 268:	e5963000 	ldr	r3, [r6]
 26c:	e3530000 	cmp	r3, #0
 270:	da00000d 	ble	2ac <write_nvram+0x58>
 274:	e2867004 	add	r7, r6, #4
 278:	e0435004 	sub	r5, r3, r4
 27c:	e3550040 	cmp	r5, #64	; 0x40
 280:	a3a05040 	movge	r5, #64	; 0x40
 284:	e2841cfd 	add	r1, r4, #64768	; 0xfd00
 288:	e1a03005 	mov	r3, r5
 28c:	e0872004 	add	r2, r7, r4
 290:	e2811054 	add	r1, r1, #84	; 0x54
 294:	e3a00001 	mov	r0, #1
 298:	ebfffffe 	bl	0 <sdio_cmd53_write>
 29c:	e5963000 	ldr	r3, [r6]
 2a0:	e0844005 	add	r4, r4, r5
 2a4:	e1530004 	cmp	r3, r4
 2a8:	cafffff2 	bgt	278 <write_nvram+0x24>
 2ac:	e1a00004 	mov	r0, r4
 2b0:	e8bd81f0 	pop	{r4, r5, r6, r7, r8, pc}
 2b4:	00000000 	.word	0x00000000

000002b8 <sdio_init>:
 2b8:	e92d4030 	push	{r4, r5, lr}
 2bc:	e24ddf89 	sub	sp, sp, #548	; 0x224
 2c0:	e3a04000 	mov	r4, #0
 2c4:	e1a03004 	mov	r3, r4
 2c8:	e1a02004 	mov	r2, r4
 2cc:	e3a01006 	mov	r1, #6
 2d0:	e58d4004 	str	r4, [sp, #4]
 2d4:	e58d4000 	str	r4, [sp]
 2d8:	e1a00004 	mov	r0, r4
 2dc:	ebfffffe 	bl	0 <sdio_cmd52>
 2e0:	e59f0654 	ldr	r0, [pc, #1620]	; 93c <sdio_init+0x684>
 2e4:	ebfffffe 	bl	0 <usdelay>
 2e8:	e3a03001 	mov	r3, #1
 2ec:	e3a02008 	mov	r2, #8
 2f0:	e3a01006 	mov	r1, #6
 2f4:	e58d4004 	str	r4, [sp, #4]
 2f8:	e58d4000 	str	r4, [sp]
 2fc:	e1a00004 	mov	r0, r4
 300:	ebfffffe 	bl	0 <sdio_cmd52>
 304:	e59f0630 	ldr	r0, [pc, #1584]	; 93c <sdio_init+0x684>
 308:	ebfffffe 	bl	0 <usdelay>
 30c:	e1a02004 	mov	r2, r4
 310:	e1a01004 	mov	r1, r4
 314:	e1a00004 	mov	r0, r4
 318:	ebfffffe 	bl	0 <sdio_cmd>
 31c:	e1a02004 	mov	r2, r4
 320:	e59f1618 	ldr	r1, [pc, #1560]	; 940 <sdio_init+0x688>
 324:	e3a00008 	mov	r0, #8
 328:	ebfffffe 	bl	0 <sdio_cmd>
 32c:	e1a02004 	mov	r2, r4
 330:	e1a01004 	mov	r1, r4
 334:	e3a00005 	mov	r0, #5
 338:	ebfffffe 	bl	0 <sdio_cmd>
 33c:	e1a02004 	mov	r2, r4
 340:	e3a01602 	mov	r1, #2097152	; 0x200000
 344:	e3a00005 	mov	r0, #5
 348:	ebfffffe 	bl	0 <sdio_cmd>
 34c:	e28d2010 	add	r2, sp, #16
 350:	e1a01004 	mov	r1, r4
 354:	e3a00003 	mov	r0, #3
 358:	ebfffffe 	bl	0 <sdio_cmd>
 35c:	e1dd51b1 	ldrh	r5, [sp, #17]
 360:	e1a01004 	mov	r1, r4
 364:	e6bf5fb5 	rev16	r5, r5
 368:	e6ff5075 	uxth	r5, r5
 36c:	e1a00005 	mov	r0, r5
 370:	ebfffffe 	bl	0 <sdio_cmd7>
 374:	e3a03001 	mov	r3, #1
 378:	e3a02003 	mov	r2, #3
 37c:	e3a01013 	mov	r1, #19
 380:	e1a00004 	mov	r0, r4
 384:	ebfffffe 	bl	0 <sdio_cmd52_writes>
 388:	e3a03001 	mov	r3, #1
 38c:	e3a02042 	mov	r2, #66	; 0x42
 390:	e3a01007 	mov	r1, #7
 394:	e1a00004 	mov	r0, r4
 398:	ebfffffe 	bl	0 <sdio_cmd52_writes>
 39c:	e3a03002 	mov	r3, #2
 3a0:	e3a02040 	mov	r2, #64	; 0x40
 3a4:	e3a01e11 	mov	r1, #272	; 0x110
 3a8:	e1a00004 	mov	r0, r4
 3ac:	ebfffffe 	bl	0 <sdio_cmd52_writes>
 3b0:	e3a03002 	mov	r3, #2
 3b4:	e3a02c02 	mov	r2, #512	; 0x200
 3b8:	e3a01e21 	mov	r1, #528	; 0x210
 3bc:	e1a00004 	mov	r0, r4
 3c0:	ebfffffe 	bl	0 <sdio_cmd52_writes>
 3c4:	e3a02002 	mov	r2, #2
 3c8:	e1a01002 	mov	r1, r2
 3cc:	e3a03001 	mov	r3, #1
 3d0:	e1a00004 	mov	r0, r4
 3d4:	ebfffffe 	bl	0 <sdio_cmd52_writes>
 3d8:	e3a03001 	mov	r3, #1
 3dc:	e58d3000 	str	r3, [sp]
 3e0:	e1a00004 	mov	r0, r4
 3e4:	e3a03002 	mov	r3, #2
 3e8:	e3a020ff 	mov	r2, #255	; 0xff
 3ec:	e3a01003 	mov	r1, #3
 3f0:	ebfffffe 	bl	0 <sdio_cmd52_reads_check>
 3f4:	e1500004 	cmp	r0, r4
 3f8:	0a000149 	beq	924 <sdio_init+0x66c>
 3fc:	e3a00306 	mov	r0, #402653184	; 0x18000000
 400:	ebfffffe 	bl	0 <sdio_bak_window>
 404:	e28d200c 	add	r2, sp, #12
 408:	e3a03004 	mov	r3, #4
 40c:	e3a01902 	mov	r1, #32768	; 0x8000
 410:	e3a00001 	mov	r0, #1
 414:	ebfffffe 	bl	0 <sdio_cmd53_read>
 418:	e3a03001 	mov	r3, #1
 41c:	e1a00003 	mov	r0, r3
 420:	e3a02028 	mov	r2, #40	; 0x28
 424:	e59f1518 	ldr	r1, [pc, #1304]	; 944 <sdio_init+0x68c>
 428:	ebfffffe 	bl	0 <sdio_cmd52_writes>
 42c:	e3a03001 	mov	r3, #1
 430:	e28d200c 	add	r2, sp, #12
 434:	e1a00003 	mov	r0, r3
 438:	e59f1504 	ldr	r1, [pc, #1284]	; 944 <sdio_init+0x68c>
 43c:	ebfffffe 	bl	0 <sdio_cmd52_reads>
 440:	e3a03001 	mov	r3, #1
 444:	e1a00003 	mov	r0, r3
 448:	e3a02021 	mov	r2, #33	; 0x21
 44c:	e59f14f0 	ldr	r1, [pc, #1264]	; 944 <sdio_init+0x68c>
 450:	ebfffffe 	bl	0 <sdio_cmd52_writes>
 454:	e3a03001 	mov	r3, #1
 458:	e1a00003 	mov	r0, r3
 45c:	e3a02000 	mov	r2, #0
 460:	e59f14e0 	ldr	r1, [pc, #1248]	; 948 <sdio_init+0x690>
 464:	ebfffffe 	bl	0 <sdio_cmd52_writes>
 468:	e28d200c 	add	r2, sp, #12
 46c:	e3a03004 	mov	r3, #4
 470:	e3a01902 	mov	r1, #32768	; 0x8000
 474:	e3a00001 	mov	r0, #1
 478:	ebfffffe 	bl	0 <sdio_cmd53_read>
 47c:	e28d200c 	add	r2, sp, #12
 480:	e3a03004 	mov	r3, #4
 484:	e59f14c0 	ldr	r1, [pc, #1216]	; 94c <sdio_init+0x694>
 488:	e3a00001 	mov	r0, #1
 48c:	ebfffffe 	bl	0 <sdio_cmd53_read>
 490:	e3a01003 	mov	r1, #3
 494:	e59f04b4 	ldr	r0, [pc, #1204]	; 950 <sdio_init+0x698>
 498:	ebfffffe 	bl	0 <sdio_bak_write32>
 49c:	e3a01007 	mov	r1, #7
 4a0:	e59f04ac 	ldr	r0, [pc, #1196]	; 954 <sdio_init+0x69c>
 4a4:	ebfffffe 	bl	0 <sdio_bak_write32>
 4a8:	e3a01000 	mov	r1, #0
 4ac:	e59f04a4 	ldr	r0, [pc, #1188]	; 958 <sdio_init+0x6a0>
 4b0:	ebfffffe 	bl	0 <sdio_bak_write32>
 4b4:	e3a01005 	mov	r1, #5
 4b8:	e59f0494 	ldr	r0, [pc, #1172]	; 954 <sdio_init+0x69c>
 4bc:	ebfffffe 	bl	0 <sdio_bak_write32>
 4c0:	e3a01003 	mov	r1, #3
 4c4:	e59f0490 	ldr	r0, [pc, #1168]	; 95c <sdio_init+0x6a4>
 4c8:	ebfffffe 	bl	0 <sdio_bak_write32>
 4cc:	e3a01000 	mov	r1, #0
 4d0:	e59f0488 	ldr	r0, [pc, #1160]	; 960 <sdio_init+0x6a8>
 4d4:	ebfffffe 	bl	0 <sdio_bak_write32>
 4d8:	e3a01001 	mov	r1, #1
 4dc:	e59f0478 	ldr	r0, [pc, #1144]	; 95c <sdio_init+0x6a4>
 4e0:	ebfffffe 	bl	0 <sdio_bak_write32>
 4e4:	e28d100c 	add	r1, sp, #12
 4e8:	e59f046c 	ldr	r0, [pc, #1132]	; 95c <sdio_init+0x6a4>
 4ec:	ebfffffe 	bl	0 <sdio_bak_read32>
 4f0:	e3500000 	cmp	r0, #0
 4f4:	0a000002 	beq	504 <sdio_init+0x24c>
 4f8:	e5dd300c 	ldrb	r3, [sp, #12]
 4fc:	e3530001 	cmp	r3, #1
 500:	0a000000 	beq	508 <sdio_init+0x250>
 504:	ebfffffe 	bl	0 <disp_log_break>
 508:	e3a01003 	mov	r1, #3
 50c:	e59f0450 	ldr	r0, [pc, #1104]	; 964 <sdio_init+0x6ac>
 510:	ebfffffe 	bl	0 <sdio_bak_write32>
 514:	e3a01000 	mov	r1, #0
 518:	e59f0448 	ldr	r0, [pc, #1096]	; 968 <sdio_init+0x6b0>
 51c:	ebfffffe 	bl	0 <sdio_bak_write32>
 520:	e28d100c 	add	r1, sp, #12
 524:	e59f0430 	ldr	r0, [pc, #1072]	; 95c <sdio_init+0x6a4>
 528:	ebfffffe 	bl	0 <sdio_bak_read32>
 52c:	e3500000 	cmp	r0, #0
 530:	0a000002 	beq	540 <sdio_init+0x288>
 534:	e5dd300c 	ldrb	r3, [sp, #12]
 538:	e3530001 	cmp	r3, #1
 53c:	0a000000 	beq	544 <sdio_init+0x28c>
 540:	ebfffffe 	bl	0 <disp_log_break>
 544:	e28d100c 	add	r1, sp, #12
 548:	e59f0410 	ldr	r0, [pc, #1040]	; 960 <sdio_init+0x6a8>
 54c:	ebfffffe 	bl	0 <sdio_bak_read32>
 550:	e3500000 	cmp	r0, #0
 554:	0a0000f0 	beq	91c <sdio_init+0x664>
 558:	e5dd300c 	ldrb	r3, [sp, #12]
 55c:	e3530000 	cmp	r3, #0
 560:	1a0000ed 	bne	91c <sdio_init+0x664>
 564:	e28d100c 	add	r1, sp, #12
 568:	e59f03fc 	ldr	r0, [pc, #1020]	; 96c <sdio_init+0x6b4>
 56c:	ebfffffe 	bl	0 <sdio_bak_read32>
 570:	e3a01000 	mov	r1, #0
 574:	e59f03e8 	ldr	r0, [pc, #1000]	; 964 <sdio_init+0x6ac>
 578:	ebfffffe 	bl	0 <sdio_bak_write32>
 57c:	e28d100c 	add	r1, sp, #12
 580:	e59f03e8 	ldr	r0, [pc, #1000]	; 970 <sdio_init+0x6b8>
 584:	ebfffffe 	bl	0 <sdio_bak_read32>
 588:	e3a01001 	mov	r1, #1
 58c:	e59f03d0 	ldr	r0, [pc, #976]	; 964 <sdio_init+0x6ac>
 590:	ebfffffe 	bl	0 <sdio_bak_write32>
 594:	e28d100c 	add	r1, sp, #12
 598:	e59f03d0 	ldr	r0, [pc, #976]	; 970 <sdio_init+0x6b8>
 59c:	ebfffffe 	bl	0 <sdio_bak_read32>
 5a0:	e3a01002 	mov	r1, #2
 5a4:	e59f03b8 	ldr	r0, [pc, #952]	; 964 <sdio_init+0x6ac>
 5a8:	ebfffffe 	bl	0 <sdio_bak_write32>
 5ac:	e28d100c 	add	r1, sp, #12
 5b0:	e59f03b8 	ldr	r0, [pc, #952]	; 970 <sdio_init+0x6b8>
 5b4:	ebfffffe 	bl	0 <sdio_bak_read32>
 5b8:	e3a01003 	mov	r1, #3
 5bc:	e59f03a0 	ldr	r0, [pc, #928]	; 964 <sdio_init+0x6ac>
 5c0:	ebfffffe 	bl	0 <sdio_bak_write32>
 5c4:	e3a03001 	mov	r3, #1
 5c8:	e58d3000 	str	r3, [sp]
 5cc:	e3a020ff 	mov	r2, #255	; 0xff
 5d0:	e3a010f1 	mov	r1, #241	; 0xf1
 5d4:	e3a00000 	mov	r0, #0
 5d8:	ebfffffe 	bl	0 <sdio_cmd52_reads_check>
 5dc:	e3500000 	cmp	r0, #0
 5e0:	0a0000d3 	beq	934 <sdio_init+0x67c>
 5e4:	e3a03001 	mov	r3, #1
 5e8:	e3a02003 	mov	r2, #3
 5ec:	e3a010f1 	mov	r1, #241	; 0xf1
 5f0:	e3a00000 	mov	r0, #0
 5f4:	ebfffffe 	bl	0 <sdio_cmd52_writes>
 5f8:	e3a03004 	mov	r3, #4
 5fc:	e28d200c 	add	r2, sp, #12
 600:	e3a01c86 	mov	r1, #34304	; 0x8600
 604:	e3a00001 	mov	r0, #1
 608:	ebfffffe 	bl	0 <sdio_cmd53_read>
 60c:	e5ddc00d 	ldrb	ip, [sp, #13]
 610:	e3a03004 	mov	r3, #4
 614:	e28d200c 	add	r2, sp, #12
 618:	e38cc040 	orr	ip, ip, #64	; 0x40
 61c:	e3a01c86 	mov	r1, #34304	; 0x8600
 620:	e3a00001 	mov	r0, #1
 624:	e5cdc00d 	strb	ip, [sp, #13]
 628:	ebfffffe 	bl	0 <sdio_cmd53_write>
 62c:	e3a02002 	mov	r2, #2
 630:	e1a01002 	mov	r1, r2
 634:	e3a03001 	mov	r3, #1
 638:	e3a00000 	mov	r0, #0
 63c:	ebfffffe 	bl	0 <sdio_cmd52_writes>
 640:	e3a03001 	mov	r3, #1
 644:	e1a00003 	mov	r0, r3
 648:	e3a02000 	mov	r2, #0
 64c:	e59f12f0 	ldr	r1, [pc, #752]	; 944 <sdio_init+0x68c>
 650:	ebfffffe 	bl	0 <sdio_cmd52_writes>
 654:	e59f0318 	ldr	r0, [pc, #792]	; 974 <sdio_init+0x6bc>
 658:	ebfffffe 	bl	0 <usdelay>
 65c:	e3a03001 	mov	r3, #1
 660:	e1a00003 	mov	r0, r3
 664:	e3a02008 	mov	r2, #8
 668:	e59f12d4 	ldr	r1, [pc, #724]	; 944 <sdio_init+0x68c>
 66c:	ebfffffe 	bl	0 <sdio_cmd52_writes>
 670:	e3a00001 	mov	r0, #1
 674:	e58d0000 	str	r0, [sp]
 678:	e3a03048 	mov	r3, #72	; 0x48
 67c:	e3a020ff 	mov	r2, #255	; 0xff
 680:	e59f12bc 	ldr	r1, [pc, #700]	; 944 <sdio_init+0x68c>
 684:	ebfffffe 	bl	0 <sdio_cmd52_reads_check>
 688:	e3500000 	cmp	r0, #0
 68c:	0a0000a6 	beq	92c <sdio_init+0x674>
 690:	ebfffffe 	bl	16c <write_firmware>
 694:	e3a00916 	mov	r0, #360448	; 0x58000
 698:	ebfffffe 	bl	0 <sdio_bak_window>
 69c:	e28d2018 	add	r2, sp, #24
 6a0:	e3a03004 	mov	r3, #4
 6a4:	e59f12cc 	ldr	r1, [pc, #716]	; 978 <sdio_init+0x6c0>
 6a8:	e3a00001 	mov	r0, #1
 6ac:	ebfffffe 	bl	0 <sdio_cmd53_read>
 6b0:	ebfffffe 	bl	254 <write_nvram>
 6b4:	e28d2018 	add	r2, sp, #24
 6b8:	e3a0302c 	mov	r3, #44	; 0x2c
 6bc:	e59f12b8 	ldr	r1, [pc, #696]	; 97c <sdio_init+0x6c4>
 6c0:	e3a00001 	mov	r0, #1
 6c4:	ebfffffe 	bl	0 <sdio_cmd53_read>
 6c8:	e28d100c 	add	r1, sp, #12
 6cc:	e59f0288 	ldr	r0, [pc, #648]	; 95c <sdio_init+0x6a4>
 6d0:	ebfffffe 	bl	0 <sdio_bak_read32>
 6d4:	e28d100c 	add	r1, sp, #12
 6d8:	e59f0280 	ldr	r0, [pc, #640]	; 960 <sdio_init+0x6a8>
 6dc:	ebfffffe 	bl	0 <sdio_bak_read32>
 6e0:	e3e01000 	mvn	r1, #0
 6e4:	e59f0294 	ldr	r0, [pc, #660]	; 980 <sdio_init+0x6c8>
 6e8:	ebfffffe 	bl	0 <sdio_bak_write32>
 6ec:	e3a01003 	mov	r1, #3
 6f0:	e59f0258 	ldr	r0, [pc, #600]	; 950 <sdio_init+0x698>
 6f4:	ebfffffe 	bl	0 <sdio_bak_write32>
 6f8:	e3a01000 	mov	r1, #0
 6fc:	e59f0280 	ldr	r0, [pc, #640]	; 984 <sdio_init+0x6cc>
 700:	ebfffffe 	bl	0 <sdio_bak_write32>
 704:	e3a01001 	mov	r1, #1
 708:	e59f0240 	ldr	r0, [pc, #576]	; 950 <sdio_init+0x698>
 70c:	ebfffffe 	bl	0 <sdio_bak_write32>
 710:	e28d100c 	add	r1, sp, #12
 714:	e59f0234 	ldr	r0, [pc, #564]	; 950 <sdio_init+0x698>
 718:	ebfffffe 	bl	0 <sdio_bak_read32>
 71c:	e3a00306 	mov	r0, #402653184	; 0x18000000
 720:	ebfffffe 	bl	0 <sdio_bak_window>
 724:	e3a03001 	mov	r3, #1
 728:	e1a00003 	mov	r0, r3
 72c:	e3a02000 	mov	r2, #0
 730:	e59f120c 	ldr	r1, [pc, #524]	; 944 <sdio_init+0x68c>
 734:	ebfffffe 	bl	0 <sdio_cmd52_writes>
 738:	e3a03001 	mov	r3, #1
 73c:	e1a00003 	mov	r0, r3
 740:	e3a02010 	mov	r2, #16
 744:	e59f11f8 	ldr	r1, [pc, #504]	; 944 <sdio_init+0x68c>
 748:	ebfffffe 	bl	0 <sdio_cmd52_writes>
 74c:	e3a03001 	mov	r3, #1
 750:	e1a00003 	mov	r0, r3
 754:	e28d200c 	add	r2, sp, #12
 758:	e59f11e4 	ldr	r1, [pc, #484]	; 944 <sdio_init+0x68c>
 75c:	ebfffffe 	bl	0 <sdio_cmd52_reads>
 760:	e59f0220 	ldr	r0, [pc, #544]	; 988 <sdio_init+0x6d0>
 764:	ebfffffe 	bl	0 <usdelay>
 768:	e3a03001 	mov	r3, #1
 76c:	e1a00003 	mov	r0, r3
 770:	e28d200c 	add	r2, sp, #12
 774:	e59f11c8 	ldr	r1, [pc, #456]	; 944 <sdio_init+0x68c>
 778:	ebfffffe 	bl	0 <sdio_cmd52_reads>
 77c:	e3500000 	cmp	r0, #0
 780:	0a000002 	beq	790 <sdio_init+0x4d8>
 784:	e5dd300c 	ldrb	r3, [sp, #12]
 788:	e35300d0 	cmp	r3, #208	; 0xd0
 78c:	0a000000 	beq	794 <sdio_init+0x4dc>
 790:	ebfffffe 	bl	0 <disp_log_break>
 794:	e3a03001 	mov	r3, #1
 798:	e1a00003 	mov	r0, r3
 79c:	e3a020d2 	mov	r2, #210	; 0xd2
 7a0:	e59f119c 	ldr	r1, [pc, #412]	; 944 <sdio_init+0x68c>
 7a4:	ebfffffe 	bl	0 <sdio_cmd52_writes>
 7a8:	e3a01701 	mov	r1, #262144	; 0x40000
 7ac:	e59f01d8 	ldr	r0, [pc, #472]	; 98c <sdio_init+0x6d4>
 7b0:	ebfffffe 	bl	0 <sdio_bak_write32>
 7b4:	e3a03001 	mov	r3, #1
 7b8:	e3a02006 	mov	r2, #6
 7bc:	e3a01002 	mov	r1, #2
 7c0:	e3a00000 	mov	r0, #0
 7c4:	ebfffffe 	bl	0 <sdio_cmd52_writes>
 7c8:	e3a03001 	mov	r3, #1
 7cc:	e28d200c 	add	r2, sp, #12
 7d0:	e3a01003 	mov	r1, #3
 7d4:	e3a00000 	mov	r0, #0
 7d8:	ebfffffe 	bl	0 <sdio_cmd52_reads>
 7dc:	e59f01ac 	ldr	r0, [pc, #428]	; 990 <sdio_init+0x6d8>
 7e0:	ebfffffe 	bl	0 <usdelay>
 7e4:	e3a03001 	mov	r3, #1
 7e8:	e28d200c 	add	r2, sp, #12
 7ec:	e3a01003 	mov	r1, #3
 7f0:	e3a00000 	mov	r0, #0
 7f4:	ebfffffe 	bl	0 <sdio_cmd52_reads>
 7f8:	e3500000 	cmp	r0, #0
 7fc:	0a000002 	beq	80c <sdio_init+0x554>
 800:	e5dd300c 	ldrb	r3, [sp, #12]
 804:	e3530006 	cmp	r3, #6
 808:	0a000000 	beq	810 <sdio_init+0x558>
 80c:	ebfffffe 	bl	0 <disp_log_break>
 810:	e59f117c 	ldr	r1, [pc, #380]	; 994 <sdio_init+0x6dc>
 814:	e59f017c 	ldr	r0, [pc, #380]	; 998 <sdio_init+0x6e0>
 818:	ebfffffe 	bl	0 <sdio_bak_write32>
 81c:	e28d100c 	add	r1, sp, #12
 820:	e59f0174 	ldr	r0, [pc, #372]	; 99c <sdio_init+0x6e4>
 824:	ebfffffe 	bl	0 <sdio_bak_read32>
 828:	e3a00306 	mov	r0, #402653184	; 0x18000000
 82c:	ebfffffe 	bl	0 <sdio_bak_window>
 830:	e3a03001 	mov	r3, #1
 834:	e1a00003 	mov	r0, r3
 838:	e3a02002 	mov	r2, #2
 83c:	e59f115c 	ldr	r1, [pc, #348]	; 9a0 <sdio_init+0x6e8>
 840:	ebfffffe 	bl	0 <sdio_cmd52_writes>
 844:	e3a03001 	mov	r3, #1
 848:	e3a02006 	mov	r2, #6
 84c:	e3a010f0 	mov	r1, #240	; 0xf0
 850:	e3a00000 	mov	r0, #0
 854:	ebfffffe 	bl	0 <sdio_cmd52_writes>
 858:	e3a03001 	mov	r3, #1
 85c:	e3a02007 	mov	r2, #7
 860:	e3a01004 	mov	r1, #4
 864:	e3a00000 	mov	r0, #0
 868:	ebfffffe 	bl	0 <sdio_cmd52_writes>
 86c:	e28d200c 	add	r2, sp, #12
 870:	e3a03001 	mov	r3, #1
 874:	e3a01005 	mov	r1, #5
 878:	e3a00000 	mov	r0, #0
 87c:	ebfffffe 	bl	0 <sdio_cmd52_reads>
 880:	e28d100c 	add	r1, sp, #12
 884:	e59f00f4 	ldr	r0, [pc, #244]	; 980 <sdio_init+0x6c8>
 888:	ebfffffe 	bl	0 <sdio_bak_read32>
 88c:	e59f1110 	ldr	r1, [pc, #272]	; 9a4 <sdio_init+0x6ec>
 890:	e59f00e8 	ldr	r0, [pc, #232]	; 980 <sdio_init+0x6c8>
 894:	ebfffffe 	bl	0 <sdio_bak_write32>
 898:	e28d100c 	add	r1, sp, #12
 89c:	e59f0104 	ldr	r0, [pc, #260]	; 9a8 <sdio_init+0x6f0>
 8a0:	ebfffffe 	bl	0 <sdio_bak_read32>
 8a4:	e3a01002 	mov	r1, #2
 8a8:	e59f00fc 	ldr	r0, [pc, #252]	; 9ac <sdio_init+0x6f4>
 8ac:	ebfffffe 	bl	0 <sdio_bak_write32>
 8b0:	e28d100c 	add	r1, sp, #12
 8b4:	e59f00e0 	ldr	r0, [pc, #224]	; 99c <sdio_init+0x6e4>
 8b8:	ebfffffe 	bl	0 <sdio_bak_read32>
 8bc:	e28d100c 	add	r1, sp, #12
 8c0:	e59f00e8 	ldr	r0, [pc, #232]	; 9b0 <sdio_init+0x6f8>
 8c4:	ebfffffe 	bl	0 <sdio_bak_read32>
 8c8:	e3a0090e 	mov	r0, #229376	; 0x38000
 8cc:	ebfffffe 	bl	0 <sdio_bak_window>
 8d0:	e28d2018 	add	r2, sp, #24
 8d4:	e3a03040 	mov	r3, #64	; 0x40
 8d8:	e59f10d4 	ldr	r1, [pc, #212]	; 9b4 <sdio_init+0x6fc>
 8dc:	e3a00001 	mov	r0, #1
 8e0:	ebfffffe 	bl	0 <sdio_cmd53_read>
 8e4:	e28d100c 	add	r1, sp, #12
 8e8:	e59f0090 	ldr	r0, [pc, #144]	; 980 <sdio_init+0x6c8>
 8ec:	ebfffffe 	bl	0 <sdio_bak_read32>
 8f0:	e3a01080 	mov	r1, #128	; 0x80
 8f4:	e59f0084 	ldr	r0, [pc, #132]	; 980 <sdio_init+0x6c8>
 8f8:	ebfffffe 	bl	0 <sdio_bak_write32>
 8fc:	e28d2018 	add	r2, sp, #24
 900:	e3a03040 	mov	r3, #64	; 0x40
 904:	e3a01902 	mov	r1, #32768	; 0x8000
 908:	e3a00002 	mov	r0, #2
 90c:	ebfffffe 	bl	0 <sdio_cmd53_read>
 910:	e1a00005 	mov	r0, r5
 914:	e28ddf89 	add	sp, sp, #548	; 0x224
 918:	e8bd8030 	pop	{r4, r5, pc}
 91c:	ebfffffe 	bl	0 <disp_log_break>
 920:	eaffff0f 	b	564 <sdio_init+0x2ac>
 924:	ebfffffe 	bl	0 <disp_log_break>
 928:	eafffeb3 	b	3fc <sdio_init+0x144>
 92c:	ebfffffe 	bl	0 <disp_log_break>
 930:	eaffff56 	b	690 <sdio_init+0x3d8>
 934:	ebfffffe 	bl	0 <disp_log_break>
 938:	eaffff29 	b	5e4 <sdio_init+0x32c>
 93c:	00004e20 	.word	0x00004e20
 940:	000001aa 	.word	0x000001aa
 944:	0001000e 	.word	0x0001000e
 948:	0001000f 	.word	0x0001000f
 94c:	000080fc 	.word	0x000080fc
 950:	18103408 	.word	0x18103408
 954:	18101408 	.word	0x18101408
 958:	18101800 	.word	0x18101800
 95c:	18104408 	.word	0x18104408
 960:	18104800 	.word	0x18104800
 964:	18004010 	.word	0x18004010
 968:	18004044 	.word	0x18004044
 96c:	18004000 	.word	0x18004000
 970:	18004040 	.word	0x18004040
 974:	0000afc8 	.word	0x0000afc8
 978:	0000ee80 	.word	0x0000ee80
 97c:	0000ffd4 	.word	0x0000ffd4
 980:	18002020 	.word	0x18002020
 984:	18103800 	.word	0x18103800
 988:	0000c350 	.word	0x0000c350
 98c:	18002048 	.word	0x18002048
 990:	000186a0 	.word	0x000186a0
 994:	200000f0 	.word	0x200000f0
 998:	18002024 	.word	0x18002024
 99c:	18000508 	.word	0x18000508
 9a0:	0001001e 	.word	0x0001001e
 9a4:	200000c0 	.word	0x200000c0
 9a8:	1800204c 	.word	0x1800204c
 9ac:	18002040 	.word	0x18002040
 9b0:	0006fffc 	.word	0x0006fffc
 9b4:	000070d4 	.word	0x000070d4

000009b8 <sd_setup>:
 9b8:	e92d4010 	push	{r4, lr}
 9bc:	e3a02000 	mov	r2, #0
 9c0:	e3a01001 	mov	r1, #1
 9c4:	e3a00022 	mov	r0, #34	; 0x22
 9c8:	ebfffffe 	bl	0 <gpio_set>
 9cc:	e3a02002 	mov	r2, #2
 9d0:	e3a01000 	mov	r1, #0
 9d4:	e3a00023 	mov	r0, #35	; 0x23
 9d8:	ebfffffe 	bl	0 <gpio_set>
 9dc:	e3a02002 	mov	r2, #2
 9e0:	e3a01000 	mov	r1, #0
 9e4:	e3a00024 	mov	r0, #36	; 0x24
 9e8:	ebfffffe 	bl	0 <gpio_set>
 9ec:	e3a02002 	mov	r2, #2
 9f0:	e3a01000 	mov	r1, #0
 9f4:	e3a00025 	mov	r0, #37	; 0x25
 9f8:	ebfffffe 	bl	0 <gpio_set>
 9fc:	e3a02002 	mov	r2, #2
 a00:	e3a01000 	mov	r1, #0
 a04:	e3a00026 	mov	r0, #38	; 0x26
 a08:	ebfffffe 	bl	0 <gpio_set>
 a0c:	e3a02002 	mov	r2, #2
 a10:	e3a01000 	mov	r1, #0
 a14:	e3a00027 	mov	r0, #39	; 0x27
 a18:	e8bd4010 	pop	{r4, lr}
 a1c:	eafffffe 	b	0 <gpio_set>

00000a20 <joinit>:
 a20:	e92d4ff0 	push	{r4, r5, r6, r7, r8, r9, sl, fp, lr}
 a24:	ed2d8b02 	vpush	{d8}
 a28:	e3a04000 	mov	r4, #0
 a2c:	e24dd0a4 	sub	sp, sp, #164	; 0xa4
 a30:	e28d5020 	add	r5, sp, #32
 a34:	e58d4008 	str	r4, [sp, #8]
 a38:	ebfffffe 	bl	0 <ustime>
 a3c:	e3a02080 	mov	r2, #128	; 0x80
 a40:	e1a01004 	mov	r1, r4
 a44:	e1a0b000 	mov	fp, r0
 a48:	e1a00005 	mov	r0, r5
 a4c:	ebfffffe 	bl	0 <memset>
 a50:	e58d400c 	str	r4, [sp, #12]
 a54:	e58d400f 	str	r4, [sp, #15]
 a58:	ebfffffe 	bl	0 <crc7_init>
 a5c:	ebfffffe 	bl	0 <qcrc16r_init>
 a60:	e1a01004 	mov	r1, r4
 a64:	e28d0008 	add	r0, sp, #8
 a68:	ebfffffe 	bl	0 <ustimeout>
 a6c:	e59f0434 	ldr	r0, [pc, #1076]	; ea8 <joinit+0x488>
 a70:	ebfffffe 	bl	0 <puts>
 a74:	ebfffffe 	bl	0 <__getreent>
 a78:	e5900008 	ldr	r0, [r0, #8]
 a7c:	ebfffffe 	bl	0 <fflush>
 a80:	ebfffffe 	bl	0 <osc_init>
 a84:	e1a02004 	mov	r2, r4
 a88:	e3a01001 	mov	r1, #1
 a8c:	e3a0002f 	mov	r0, #47	; 0x2f
 a90:	ebfffffe 	bl	0 <gpio_set>
 a94:	ebfffffe 	bl	9b8 <sd_setup>
 a98:	e3a01001 	mov	r1, #1
 a9c:	e3a00029 	mov	r0, #41	; 0x29
 aa0:	ebfffffe 	bl	0 <gpio_out>
 aa4:	e59f0400 	ldr	r0, [pc, #1024]	; eac <joinit+0x48c>
 aa8:	ebfffffe 	bl	0 <flash_init>
 aac:	e59f03f8 	ldr	r0, [pc, #1016]	; eac <joinit+0x48c>
 ab0:	ebfffffe 	bl	0 <usdelay>
 ab4:	e3a00002 	mov	r0, #2
 ab8:	ebfffffe 	bl	0 <log_enable>
 abc:	ebfffffe 	bl	2b8 <sdio_init>
 ac0:	e1a02005 	mov	r2, r5
 ac4:	e3a03040 	mov	r3, #64	; 0x40
 ac8:	e3a01902 	mov	r1, #32768	; 0x8000
 acc:	e3a00002 	mov	r0, #2
 ad0:	ebfffffe 	bl	0 <sdio_cmd53_read>
 ad4:	e1a01004 	mov	r1, r4
 ad8:	e28d200c 	add	r2, sp, #12
 adc:	e3a03006 	mov	r3, #6
 ae0:	e59f03c8 	ldr	r0, [pc, #968]	; eb0 <joinit+0x490>
 ae4:	ebfffffe 	bl	0 <ioctl_get_data>
 ae8:	e1a04000 	mov	r4, r0
 aec:	e59f03c0 	ldr	r0, [pc, #960]	; eb4 <joinit+0x494>
 af0:	ebfffffe 	bl	0 <printf>
 af4:	e3540000 	cmp	r4, #0
 af8:	0a0000e4 	beq	e90 <joinit+0x470>
 afc:	e28d000c 	add	r0, sp, #12
 b00:	ebfffffe 	bl	6c <disp_mac_addr>
 b04:	e3a03080 	mov	r3, #128	; 0x80
 b08:	e1a02005 	mov	r2, r5
 b0c:	e3a01000 	mov	r1, #0
 b10:	e59f03a0 	ldr	r0, [pc, #928]	; eb8 <joinit+0x498>
 b14:	ebfffffe 	bl	0 <ioctl_get_data>
 b18:	e59f139c 	ldr	r1, [pc, #924]	; ebc <joinit+0x49c>
 b1c:	e3500000 	cmp	r0, #0
 b20:	11a01005 	movne	r1, r5
 b24:	e59f0394 	ldr	r0, [pc, #916]	; ec0 <joinit+0x4a0>
 b28:	ebfffffe 	bl	0 <printf>
 b2c:	e3a0300c 	mov	r3, #12
 b30:	e59f238c 	ldr	r2, [pc, #908]	; ec4 <joinit+0x4a4>
 b34:	e3a01064 	mov	r1, #100	; 0x64
 b38:	e59f0388 	ldr	r0, [pc, #904]	; ec8 <joinit+0x4a8>
 b3c:	ebfffffe 	bl	0 <ioctl_set_data>
 b40:	e3500000 	cmp	r0, #0
 b44:	1a000001 	bne	b50 <joinit+0x130>
 b48:	e59f037c 	ldr	r0, [pc, #892]	; ecc <joinit+0x4ac>
 b4c:	ebfffffe 	bl	0 <puts>
 b50:	e3a02000 	mov	r2, #0
 b54:	e3a010c8 	mov	r1, #200	; 0xc8
 b58:	e3a00002 	mov	r0, #2
 b5c:	ebfffffe 	bl	0 <ioctl_wr_int32>
 b60:	e3500000 	cmp	r0, #0
 b64:	1a000004 	bne	b7c <joinit+0x15c>
 b68:	e59f0360 	ldr	r0, [pc, #864]	; ed0 <joinit+0x4b0>
 b6c:	ebfffffe 	bl	0 <puts>
 b70:	ebfffffe 	bl	0 <__getreent>
 b74:	e5900008 	ldr	r0, [r0, #8]
 b78:	ebfffffe 	bl	0 <fflush>
 b7c:	e59f0350 	ldr	r0, [pc, #848]	; ed4 <joinit+0x4b4>
 b80:	ebfffffe 	bl	0 <ioctl_enable_evts>
 b84:	e3a02001 	mov	r2, #1
 b88:	e3a01032 	mov	r1, #50	; 0x32
 b8c:	e3a00014 	mov	r0, #20
 b90:	ebfffffe 	bl	0 <ioctl_wr_int32>
 b94:	e3500000 	cmp	r0, #0
 b98:	1a000003 	bne	bac <joinit+0x18c>
 b9c:	e59f2334 	ldr	r2, [pc, #820]	; ed8 <joinit+0x4b8>
 ba0:	e59f1334 	ldr	r1, [pc, #820]	; edc <joinit+0x4bc>
 ba4:	e59f0334 	ldr	r0, [pc, #820]	; ee0 <joinit+0x4c0>
 ba8:	ebfffffe 	bl	0 <printf>
 bac:	e3a02000 	mov	r2, #0
 bb0:	e1a01002 	mov	r1, r2
 bb4:	e3a00016 	mov	r0, #22
 bb8:	ebfffffe 	bl	0 <ioctl_wr_int32>
 bbc:	e3500000 	cmp	r0, #0
 bc0:	1a000003 	bne	bd4 <joinit+0x1b4>
 bc4:	e59f2318 	ldr	r2, [pc, #792]	; ee4 <joinit+0x4c4>
 bc8:	e59f130c 	ldr	r1, [pc, #780]	; edc <joinit+0x4bc>
 bcc:	e59f030c 	ldr	r0, [pc, #780]	; ee0 <joinit+0x4c0>
 bd0:	ebfffffe 	bl	0 <printf>
 bd4:	e3a02006 	mov	r2, #6
 bd8:	e3a01000 	mov	r1, #0
 bdc:	e3a00086 	mov	r0, #134	; 0x86
 be0:	ebfffffe 	bl	0 <ioctl_wr_int32>
 be4:	e3500000 	cmp	r0, #0
 be8:	1a000003 	bne	bfc <joinit+0x1dc>
 bec:	e59f22f4 	ldr	r2, [pc, #756]	; ee8 <joinit+0x4c8>
 bf0:	e59f12e4 	ldr	r1, [pc, #740]	; edc <joinit+0x4bc>
 bf4:	e59f02e4 	ldr	r0, [pc, #740]	; ee0 <joinit+0x4c0>
 bf8:	ebfffffe 	bl	0 <printf>
 bfc:	e3a02000 	mov	r2, #0
 c00:	e1a01002 	mov	r1, r2
 c04:	e3a03001 	mov	r3, #1
 c08:	e59f02dc 	ldr	r0, [pc, #732]	; eec <joinit+0x4cc>
 c0c:	ebfffffe 	bl	0 <ioctl_set_intx2>
 c10:	e3500000 	cmp	r0, #0
 c14:	1a000003 	bne	c28 <joinit+0x208>
 c18:	e59f22d0 	ldr	r2, [pc, #720]	; ef0 <joinit+0x4d0>
 c1c:	e59f12d0 	ldr	r1, [pc, #720]	; ef4 <joinit+0x4d4>
 c20:	e59f02b8 	ldr	r0, [pc, #696]	; ee0 <joinit+0x4c0>
 c24:	ebfffffe 	bl	0 <printf>
 c28:	e3a02000 	mov	r2, #0
 c2c:	e1a01002 	mov	r1, r2
 c30:	e3e03000 	mvn	r3, #0
 c34:	e59f02bc 	ldr	r0, [pc, #700]	; ef8 <joinit+0x4d8>
 c38:	ebfffffe 	bl	0 <ioctl_set_intx2>
 c3c:	e3500000 	cmp	r0, #0
 c40:	1a000003 	bne	c54 <joinit+0x234>
 c44:	e59f22b0 	ldr	r2, [pc, #688]	; efc <joinit+0x4dc>
 c48:	e59f12a4 	ldr	r1, [pc, #676]	; ef4 <joinit+0x4d4>
 c4c:	e59f028c 	ldr	r0, [pc, #652]	; ee0 <joinit+0x4c0>
 c50:	ebfffffe 	bl	0 <printf>
 c54:	e3a02000 	mov	r2, #0
 c58:	e1a01002 	mov	r1, r2
 c5c:	e59f329c 	ldr	r3, [pc, #668]	; f00 <joinit+0x4e0>
 c60:	e59f029c 	ldr	r0, [pc, #668]	; f04 <joinit+0x4e4>
 c64:	ebfffffe 	bl	0 <ioctl_set_intx2>
 c68:	e3500000 	cmp	r0, #0
 c6c:	1a000003 	bne	c80 <joinit+0x260>
 c70:	e59f2290 	ldr	r2, [pc, #656]	; f08 <joinit+0x4e8>
 c74:	e59f1278 	ldr	r1, [pc, #632]	; ef4 <joinit+0x4d4>
 c78:	e59f0260 	ldr	r0, [pc, #608]	; ee0 <joinit+0x4c0>
 c7c:	ebfffffe 	bl	0 <printf>
 c80:	e3a03044 	mov	r3, #68	; 0x44
 c84:	e59f2280 	ldr	r2, [pc, #640]	; f0c <joinit+0x4ec>
 c88:	e3a01000 	mov	r1, #0
 c8c:	e3a00f43 	mov	r0, #268	; 0x10c
 c90:	ebfffffe 	bl	0 <ioctl_wr_data>
 c94:	e3500000 	cmp	r0, #0
 c98:	1a000003 	bne	cac <joinit+0x28c>
 c9c:	e59f226c 	ldr	r2, [pc, #620]	; f10 <joinit+0x4f0>
 ca0:	e59f126c 	ldr	r1, [pc, #620]	; f14 <joinit+0x4f4>
 ca4:	e59f0234 	ldr	r0, [pc, #564]	; ee0 <joinit+0x4c0>
 ca8:	ebfffffe 	bl	0 <printf>
 cac:	e3a02080 	mov	r2, #128	; 0x80
 cb0:	e3a01000 	mov	r1, #0
 cb4:	e3a000a5 	mov	r0, #165	; 0xa5
 cb8:	ebfffffe 	bl	0 <ioctl_wr_int32>
 cbc:	e3500000 	cmp	r0, #0
 cc0:	1a000003 	bne	cd4 <joinit+0x2b4>
 cc4:	e59f224c 	ldr	r2, [pc, #588]	; f18 <joinit+0x4f8>
 cc8:	e59f120c 	ldr	r1, [pc, #524]	; edc <joinit+0x4bc>
 ccc:	e59f020c 	ldr	r0, [pc, #524]	; ee0 <joinit+0x4c0>
 cd0:	ebfffffe 	bl	0 <printf>
 cd4:	e59f0240 	ldr	r0, [pc, #576]	; f1c <joinit+0x4fc>
 cd8:	ebfffffe 	bl	0 <ioctl_enable_evts>
 cdc:	e3a03024 	mov	r3, #36	; 0x24
 ce0:	e59f2238 	ldr	r2, [pc, #568]	; f20 <joinit+0x500>
 ce4:	e3a01064 	mov	r1, #100	; 0x64
 ce8:	e3a0001a 	mov	r0, #26
 cec:	ebfffffe 	bl	0 <ioctl_wr_data>
 cf0:	e3500000 	cmp	r0, #0
 cf4:	1a000003 	bne	d08 <joinit+0x2e8>
 cf8:	e59f2224 	ldr	r2, [pc, #548]	; f24 <joinit+0x504>
 cfc:	e59f1210 	ldr	r1, [pc, #528]	; f14 <joinit+0x4f4>
 d00:	e59f01d8 	ldr	r0, [pc, #472]	; ee0 <joinit+0x4c0>
 d04:	ebfffffe 	bl	0 <printf>
 d08:	e59f8218 	ldr	r8, [pc, #536]	; f28 <joinit+0x508>
 d0c:	ed9f8b63 	vldr	d8, [pc, #396]	; ea0 <joinit+0x480>
 d10:	e59f4214 	ldr	r4, [pc, #532]	; f2c <joinit+0x50c>
 d14:	e59f9214 	ldr	r9, [pc, #532]	; f30 <joinit+0x510>
 d18:	e3a06000 	mov	r6, #0
 d1c:	e1a07008 	mov	r7, r8
 d20:	e288a00a 	add	sl, r8, #10
 d24:	e59f5208 	ldr	r5, [pc, #520]	; f34 <joinit+0x514>
 d28:	e3a00001 	mov	r0, #1
 d2c:	ebfffffe 	bl	0 <usdelay>
 d30:	e5d43000 	ldrb	r3, [r4]
 d34:	e16f3f13 	clz	r3, r3
 d38:	e1a032a3 	lsr	r3, r3, #5
 d3c:	e1a01003 	mov	r1, r3
 d40:	e3a00022 	mov	r0, #34	; 0x22
 d44:	e5c43000 	strb	r3, [r4]
 d48:	ebfffffe 	bl	0 <gpio_out>
 d4c:	e1a01005 	mov	r1, r5
 d50:	e28d0008 	add	r0, sp, #8
 d54:	ebfffffe 	bl	0 <ustimeout>
 d58:	e3500000 	cmp	r0, #0
 d5c:	0afffff1 	beq	d28 <joinit+0x308>
 d60:	e2265001 	eor	r5, r6, #1
 d64:	e1a01005 	mov	r1, r5
 d68:	e3a0002f 	mov	r0, #47	; 0x2f
 d6c:	ebfffffe 	bl	0 <gpio_out>
 d70:	e3560000 	cmp	r6, #0
 d74:	0a000006 	beq	d94 <joinit+0x374>
 d78:	e3a0002e 	mov	r0, #46	; 0x2e
 d7c:	ebfffffe 	bl	0 <putchar>
 d80:	ebfffffe 	bl	0 <__getreent>
 d84:	e5900008 	ldr	r0, [r0, #8]
 d88:	ebfffffe 	bl	0 <fflush>
 d8c:	e1a06005 	mov	r6, r5
 d90:	eaffffe3 	b	d24 <joinit+0x304>
 d94:	e3a02d19 	mov	r2, #1600	; 0x640
 d98:	e1a01007 	mov	r1, r7
 d9c:	e28d0014 	add	r0, sp, #20
 da0:	ebfffffe 	bl	0 <ioctl_get_event>
 da4:	e2506000 	subs	r6, r0, #0
 da8:	dafffff7 	ble	d8c <joinit+0x36c>
 dac:	ebfffffe 	bl	0 <ustime>
 db0:	e040300b 	sub	r3, r0, fp
 db4:	e1a00009 	mov	r0, r9
 db8:	ee073a10 	vmov	s14, r3
 dbc:	eeb87bc7 	vcvt.f64.s32	d7, s14
 dc0:	ee877b08 	vdiv.f64	d7, d7, d8
 dc4:	ec532b17 	vmov	r2, r3, d7
 dc8:	ebfffffe 	bl	0 <printf>
 dcc:	e1a02006 	mov	r2, r6
 dd0:	e59f1160 	ldr	r1, [pc, #352]	; f38 <joinit+0x518>
 dd4:	e28d0014 	add	r0, sp, #20
 dd8:	ebfffffe 	bl	0 <disp_fields>
 ddc:	e3a0000a 	mov	r0, #10
 de0:	ebfffffe 	bl	0 <putchar>
 de4:	e3a0100c 	mov	r1, #12
 de8:	e28d0014 	add	r0, sp, #20
 dec:	ebfffffe 	bl	0 <disp_bytes>
 df0:	e3a0000a 	mov	r0, #10
 df4:	ebfffffe 	bl	0 <putchar>
 df8:	e3a0200e 	mov	r2, #14
 dfc:	e59f1138 	ldr	r1, [pc, #312]	; f3c <joinit+0x51c>
 e00:	e1a0000a 	mov	r0, sl
 e04:	ebfffffe 	bl	0 <disp_fields>
 e08:	e1d821b6 	ldrh	r2, [r8, #22]
 e0c:	e59f312c 	ldr	r3, [pc, #300]	; f40 <joinit+0x520>
 e10:	e1520003 	cmp	r2, r3
 e14:	0a000007 	beq	e38 <joinit+0x418>
 e18:	e3a0000a 	mov	r0, #10
 e1c:	ebfffffe 	bl	0 <putchar>
 e20:	e1a00007 	mov	r0, r7
 e24:	e1a01006 	mov	r1, r6
 e28:	ebfffffe 	bl	cc <disp_block>
 e2c:	e3a0000a 	mov	r0, #10
 e30:	ebfffffe 	bl	0 <putchar>
 e34:	eaffffd4 	b	d8c <joinit+0x36c>
 e38:	e3a0200a 	mov	r2, #10
 e3c:	e59f1100 	ldr	r1, [pc, #256]	; f44 <joinit+0x524>
 e40:	e59f0100 	ldr	r0, [pc, #256]	; f48 <joinit+0x528>
 e44:	ebfffffe 	bl	0 <disp_fields>
 e48:	e3a0000a 	mov	r0, #10
 e4c:	ebfffffe 	bl	0 <putchar>
 e50:	e3a02030 	mov	r2, #48	; 0x30
 e54:	e59f10f0 	ldr	r1, [pc, #240]	; f4c <joinit+0x52c>
 e58:	e59f00f0 	ldr	r0, [pc, #240]	; f50 <joinit+0x530>
 e5c:	ebfffffe 	bl	0 <disp_fields>
 e60:	e5980026 	ldr	r0, [r8, #38]	; 0x26
 e64:	e6bf0f30 	rev	r0, r0
 e68:	ebfffffe 	bl	0 <ioctl_evt_str>
 e6c:	e58d0004 	str	r0, [sp, #4]
 e70:	e598002a 	ldr	r0, [r8, #42]	; 0x2a
 e74:	e6bf0f30 	rev	r0, r0
 e78:	ebfffffe 	bl	0 <ioctl_evt_status_str>
 e7c:	e59d1004 	ldr	r1, [sp, #4]
 e80:	e1a02000 	mov	r2, r0
 e84:	e59f00c8 	ldr	r0, [pc, #200]	; f54 <joinit+0x534>
 e88:	ebfffffe 	bl	0 <printf>
 e8c:	eaffffe1 	b	e18 <joinit+0x3f8>
 e90:	e59f00c0 	ldr	r0, [pc, #192]	; f58 <joinit+0x538>
 e94:	ebfffffe 	bl	0 <printf>
 e98:	eaffff19 	b	b04 <joinit+0xe4>
 e9c:	e1a00000 	nop			; (mov r0, r0)
 ea0:	00000000 	.word	0x00000000
 ea4:	412e8480 	.word	0x412e8480
 ea8:	00000040 	.word	0x00000040
 eac:	00002710 	.word	0x00002710
 eb0:	00000060 	.word	0x00000060
 eb4:	00000070 	.word	0x00000070
 eb8:	0000008c 	.word	0x0000008c
 ebc:	00000030 	.word	0x00000030
 ec0:	00000090 	.word	0x00000090
 ec4:	000002b4 	.word	0x000002b4
 ec8:	000000a0 	.word	0x000000a0
 ecc:	000000a8 	.word	0x000000a8
 ed0:	000000bc 	.word	0x000000bc
 ed4:	000002c0 	.word	0x000002c0
 ed8:	000000d4 	.word	0x000000d4
 edc:	000000e4 	.word	0x000000e4
 ee0:	000000f4 	.word	0x000000f4
 ee4:	00000108 	.word	0x00000108
 ee8:	00000118 	.word	0x00000118
 eec:	00000128 	.word	0x00000128
 ef0:	00000138 	.word	0x00000138
 ef4:	0000014c 	.word	0x0000014c
 ef8:	0000015c 	.word	0x0000015c
 efc:	00000174 	.word	0x00000174
 f00:	000009c4 	.word	0x000009c4
 f04:	00000190 	.word	0x00000190
 f08:	000001a4 	.word	0x000001a4
 f0c:	000002c8 	.word	0x000002c8
 f10:	000001bc 	.word	0x000001bc
 f14:	000001d0 	.word	0x000001d0
 f18:	000001e0 	.word	0x000001e0
 f1c:	0000030c 	.word	0x0000030c
 f20:	00000344 	.word	0x00000344
 f24:	000001f4 	.word	0x000001f4
	...
 f30:	00000204 	.word	0x00000204
 f34:	00004e20 	.word	0x00004e20
 f38:	00000000 	.word	0x00000000
 f3c:	00000368 	.word	0x00000368
 f40:	00006c88 	.word	0x00006c88
 f44:	00000380 	.word	0x00000380
 f48:	00000018 	.word	0x00000018
 f4c:	0000039c 	.word	0x0000039c
 f50:	00000022 	.word	0x00000022
 f54:	0000020c 	.word	0x0000020c
 f58:	00000080 	.word	0x00000080

zscan.o:     file format elf32-littlearm


Disassembly of section .text:

00000000 <disp_ssid>:
   0:	e5d01000 	ldrb	r1, [r0]
   4:	e3510000 	cmp	r1, #0
   8:	0a000010 	beq	50 <disp_ssid+0x50>
   c:	e92d4070 	push	{r4, r5, r6, lr}
  10:	e1a04000 	mov	r4, r0
  14:	e5d00001 	ldrb	r0, [r0, #1]
  18:	e3500000 	cmp	r0, #0
  1c:	0a000008 	beq	44 <disp_ssid+0x44>
  20:	e3510020 	cmp	r1, #32
  24:	ca00000b 	bgt	58 <disp_ssid+0x58>
  28:	e0845001 	add	r5, r4, r1
  2c:	e2844001 	add	r4, r4, #1
  30:	ebfffffe 	bl	0 <putchar>
  34:	e1540005 	cmp	r4, r5
  38:	08bd8070 	popeq	{r4, r5, r6, pc}
  3c:	e5f40001 	ldrb	r0, [r4, #1]!
  40:	eafffffa 	b	30 <disp_ssid+0x30>
  44:	e59f0018 	ldr	r0, [pc, #24]	; 64 <disp_ssid+0x64>
  48:	e8bd4070 	pop	{r4, r5, r6, lr}
  4c:	eafffffe 	b	0 <printf>
  50:	e59f000c 	ldr	r0, [pc, #12]	; 64 <disp_ssid+0x64>
  54:	eafffffe 	b	0 <printf>
  58:	e59f0008 	ldr	r0, [pc, #8]	; 68 <disp_ssid+0x68>
  5c:	e8bd4070 	pop	{r4, r5, r6, lr}
  60:	eafffffe 	b	0 <printf>
  64:	00000000 	.word	0x00000000
  68:	0000000c 	.word	0x0000000c

0000006c <disp_mac_addr>:
  6c:	e92d47f0 	push	{r4, r5, r6, r7, r8, r9, sl, lr}
  70:	e1a06000 	mov	r6, r0
  74:	e2404001 	sub	r4, r0, #1
  78:	e59f9040 	ldr	r9, [pc, #64]	; c0 <disp_mac_addr+0x54>
  7c:	e59f7040 	ldr	r7, [pc, #64]	; c4 <disp_mac_addr+0x58>
  80:	e59f8040 	ldr	r8, [pc, #64]	; c8 <disp_mac_addr+0x5c>
  84:	ea000004 	b	9c <disp_mac_addr+0x30>
  88:	e2444004 	sub	r4, r4, #4
  8c:	ebfffffe 	bl	0 <printf>
  90:	e1540006 	cmp	r4, r6
  94:	08bd87f0 	popeq	{r4, r5, r6, r7, r8, r9, sl, pc}
  98:	e1a04005 	mov	r4, r5
  9c:	e2845001 	add	r5, r4, #1
  a0:	e1550006 	cmp	r5, r6
  a4:	e1a01008 	mov	r1, r8
  a8:	e1a00007 	mov	r0, r7
  ac:	e5d42001 	ldrb	r2, [r4, #1]
  b0:	1afffff4 	bne	88 <disp_mac_addr+0x1c>
  b4:	e1a01009 	mov	r1, r9
  b8:	ebfffffe 	bl	0 <printf>
  bc:	eafffff5 	b	98 <disp_mac_addr+0x2c>
  c0:	0000002c 	.word	0x0000002c
  c4:	00000024 	.word	0x00000024
  c8:	00000020 	.word	0x00000020

000000cc <disp_block>:
  cc:	e92d41f0 	push	{r4, r5, r6, r7, r8, lr}
  d0:	e2516000 	subs	r6, r1, #0
  d4:	d8bd81f0 	pople	{r4, r5, r6, r7, r8, pc}
  d8:	e59f703c 	ldr	r7, [pc, #60]	; 11c <disp_block+0x50>
  dc:	e3a05000 	mov	r5, #0
  e0:	e0464005 	sub	r4, r6, r5
  e4:	e3540020 	cmp	r4, #32
  e8:	a3a04020 	movge	r4, #32
  ec:	e1a01004 	mov	r1, r4
  f0:	e0870005 	add	r0, r7, r5
  f4:	ebfffffe 	bl	0 <disp_bytes>
  f8:	e3a0000a 	mov	r0, #10
  fc:	ebfffffe 	bl	0 <putchar>
 100:	ebfffffe 	bl	0 <__getreent>
 104:	e0855004 	add	r5, r5, r4
 108:	e5900008 	ldr	r0, [r0, #8]
 10c:	ebfffffe 	bl	0 <fflush>
 110:	e1560005 	cmp	r6, r5
 114:	cafffff1 	bgt	e0 <disp_block+0x14>
 118:	e8bd81f0 	pop	{r4, r5, r6, r7, r8, pc}
 11c:	00000000 	.word	0x00000000

00000120 <gdb_break>:
 120:	e12fff1e 	bx	lr

00000124 <firm_open_read>:
 124:	e59f3004 	ldr	r3, [pc, #4]	; 130 <firm_open_read+0xc>
 128:	e5830000 	str	r0, [r3]
 12c:	e12fff1e 	bx	lr
 130:	00000000 	.word	0x00000000

00000134 <firm_read>:
 134:	e92d4070 	push	{r4, r5, r6, lr}
 138:	e1a05001 	mov	r5, r1
 13c:	e59f4020 	ldr	r4, [pc, #32]	; 164 <firm_read+0x30>
 140:	e59f3020 	ldr	r3, [pc, #32]	; 168 <firm_read+0x34>
 144:	e1a02005 	mov	r2, r5
 148:	e5941000 	ldr	r1, [r4]
 14c:	e0831001 	add	r1, r3, r1
 150:	ebfffffe 	bl	0 <memcpy>
 154:	e5941000 	ldr	r1, [r4]
 158:	e0811005 	add	r1, r1, r5
 15c:	e5841000 	str	r1, [r4]
 160:	e8bd8070 	pop	{r4, r5, r6, pc}
	...

0000016c <firm_close>:
 16c:	e12fff1e 	bx	lr

00000170 <write_firmware>:
 170:	e92d4ff8 	push	{r3, r4, r5, r6, r7, r8, r9, sl, fp, lr}
 174:	e3a03000 	mov	r3, #0
 178:	e59f70c4 	ldr	r7, [pc, #196]	; 244 <write_firmware+0xd4>
 17c:	e59fa0c4 	ldr	sl, [pc, #196]	; 248 <write_firmware+0xd8>
 180:	e59f60c4 	ldr	r6, [pc, #196]	; 24c <write_firmware+0xdc>
 184:	e1a05003 	mov	r5, r3
 188:	e5873000 	str	r3, [r7]
 18c:	ea000011 	b	1d8 <write_firmware+0x68>
 190:	e5974000 	ldr	r4, [r7]
 194:	e1a0830b 	lsl	r8, fp, #6
 198:	e08a1004 	add	r1, sl, r4
 19c:	e1a02008 	mov	r2, r8
 1a0:	ebfffffe 	bl	0 <memcpy>
 1a4:	e0844008 	add	r4, r4, r8
 1a8:	e1a0300b 	mov	r3, fp
 1ac:	e2891902 	add	r1, r9, #32768	; 0x8000
 1b0:	e1a02006 	mov	r2, r6
 1b4:	e3a00001 	mov	r0, #1
 1b8:	e5874000 	str	r4, [r7]
 1bc:	ebfffffe 	bl	0 <sdio_write_blocks>
 1c0:	e3500000 	cmp	r0, #0
 1c4:	0a00001c 	beq	23c <write_firmware+0xcc>
 1c8:	e59f3080 	ldr	r3, [pc, #128]	; 250 <write_firmware+0xe0>
 1cc:	e0855008 	add	r5, r5, r8
 1d0:	e1550003 	cmp	r5, r3
 1d4:	ca000018 	bgt	23c <write_firmware+0xcc>
 1d8:	e1a00005 	mov	r0, r5
 1dc:	ebfffffe 	bl	0 <sdio_bak_addr>
 1e0:	e59f406c 	ldr	r4, [pc, #108]	; 254 <write_firmware+0xe4>
 1e4:	e0444005 	sub	r4, r4, r5
 1e8:	e3540901 	cmp	r4, #16384	; 0x4000
 1ec:	23a04901 	movcs	r4, #16384	; 0x4000
 1f0:	e1b0b344 	asrs	fp, r4, #6
 1f4:	e1a09000 	mov	r9, r0
 1f8:	e1a00006 	mov	r0, r6
 1fc:	1affffe3 	bne	190 <write_firmware+0x20>
 200:	e5978000 	ldr	r8, [r7]
 204:	e1a02004 	mov	r2, r4
 208:	e08a1008 	add	r1, sl, r8
 20c:	ebfffffe 	bl	0 <memcpy>
 210:	e0848008 	add	r8, r4, r8
 214:	e1a03004 	mov	r3, r4
 218:	e2891902 	add	r1, r9, #32768	; 0x8000
 21c:	e1a02006 	mov	r2, r6
 220:	e3a00001 	mov	r0, #1
 224:	e5878000 	str	r8, [r7]
 228:	ebfffffe 	bl	0 <sdio_cmd53_write>
 22c:	e59f301c 	ldr	r3, [pc, #28]	; 250 <write_firmware+0xe0>
 230:	e0855004 	add	r5, r5, r4
 234:	e1550003 	cmp	r5, r3
 238:	daffffe6 	ble	1d8 <write_firmware+0x68>
 23c:	e1a00005 	mov	r0, r5
 240:	e8bd8ff8 	pop	{r3, r4, r5, r6, r7, r8, r9, sl, fp, pc}
	...
 250:	0005ee83 	.word	0x0005ee83
 254:	0005ee84 	.word	0x0005ee84

00000258 <write_nvram>:
 258:	e92d41f0 	push	{r4, r5, r6, r7, r8, lr}
 25c:	e3a0091e 	mov	r0, #491520	; 0x78000
 260:	e59f6050 	ldr	r6, [pc, #80]	; 2b8 <write_nvram+0x60>
 264:	ebfffffe 	bl	0 <sdio_bak_window>
 268:	e3a04000 	mov	r4, #0
 26c:	e5963000 	ldr	r3, [r6]
 270:	e3530000 	cmp	r3, #0
 274:	da00000d 	ble	2b0 <write_nvram+0x58>
 278:	e2867004 	add	r7, r6, #4
 27c:	e0435004 	sub	r5, r3, r4
 280:	e3550040 	cmp	r5, #64	; 0x40
 284:	a3a05040 	movge	r5, #64	; 0x40
 288:	e2841cfd 	add	r1, r4, #64768	; 0xfd00
 28c:	e1a03005 	mov	r3, r5
 290:	e0872004 	add	r2, r7, r4
 294:	e2811054 	add	r1, r1, #84	; 0x54
 298:	e3a00001 	mov	r0, #1
 29c:	ebfffffe 	bl	0 <sdio_cmd53_write>
 2a0:	e5963000 	ldr	r3, [r6]
 2a4:	e0844005 	add	r4, r4, r5
 2a8:	e1530004 	cmp	r3, r4
 2ac:	cafffff2 	bgt	27c <write_nvram+0x24>
 2b0:	e1a00004 	mov	r0, r4
 2b4:	e8bd81f0 	pop	{r4, r5, r6, r7, r8, pc}
 2b8:	00000000 	.word	0x00000000

000002bc <sdio_init>:
 2bc:	e92d4030 	push	{r4, r5, lr}
 2c0:	e24ddf89 	sub	sp, sp, #548	; 0x224
 2c4:	e3a04000 	mov	r4, #0
 2c8:	e1a03004 	mov	r3, r4
 2cc:	e1a02004 	mov	r2, r4
 2d0:	e3a01006 	mov	r1, #6
 2d4:	e58d4004 	str	r4, [sp, #4]
 2d8:	e58d4000 	str	r4, [sp]
 2dc:	e1a00004 	mov	r0, r4
 2e0:	ebfffffe 	bl	0 <sdio_cmd52>
 2e4:	e59f0654 	ldr	r0, [pc, #1620]	; 940 <sdio_init+0x684>
 2e8:	ebfffffe 	bl	0 <usdelay>
 2ec:	e3a03001 	mov	r3, #1
 2f0:	e3a02008 	mov	r2, #8
 2f4:	e3a01006 	mov	r1, #6
 2f8:	e58d4004 	str	r4, [sp, #4]
 2fc:	e58d4000 	str	r4, [sp]
 300:	e1a00004 	mov	r0, r4
 304:	ebfffffe 	bl	0 <sdio_cmd52>
 308:	e59f0630 	ldr	r0, [pc, #1584]	; 940 <sdio_init+0x684>
 30c:	ebfffffe 	bl	0 <usdelay>
 310:	e1a02004 	mov	r2, r4
 314:	e1a01004 	mov	r1, r4
 318:	e1a00004 	mov	r0, r4
 31c:	ebfffffe 	bl	0 <sdio_cmd>
 320:	e1a02004 	mov	r2, r4
 324:	e59f1618 	ldr	r1, [pc, #1560]	; 944 <sdio_init+0x688>
 328:	e3a00008 	mov	r0, #8
 32c:	ebfffffe 	bl	0 <sdio_cmd>
 330:	e1a02004 	mov	r2, r4
 334:	e1a01004 	mov	r1, r4
 338:	e3a00005 	mov	r0, #5
 33c:	ebfffffe 	bl	0 <sdio_cmd>
 340:	e1a02004 	mov	r2, r4
 344:	e3a01602 	mov	r1, #2097152	; 0x200000
 348:	e3a00005 	mov	r0, #5
 34c:	ebfffffe 	bl	0 <sdio_cmd>
 350:	e28d2010 	add	r2, sp, #16
 354:	e1a01004 	mov	r1, r4
 358:	e3a00003 	mov	r0, #3
 35c:	ebfffffe 	bl	0 <sdio_cmd>
 360:	e1dd51b1 	ldrh	r5, [sp, #17]
 364:	e1a01004 	mov	r1, r4
 368:	e6bf5fb5 	rev16	r5, r5
 36c:	e6ff5075 	uxth	r5, r5
 370:	e1a00005 	mov	r0, r5
 374:	ebfffffe 	bl	0 <sdio_cmd7>
 378:	e3a03001 	mov	r3, #1
 37c:	e3a02003 	mov	r2, #3
 380:	e3a01013 	mov	r1, #19
 384:	e1a00004 	mov	r0, r4
 388:	ebfffffe 	bl	0 <sdio_cmd52_writes>
 38c:	e3a03001 	mov	r3, #1
 390:	e3a02042 	mov	r2, #66	; 0x42
 394:	e3a01007 	mov	r1, #7
 398:	e1a00004 	mov	r0, r4
 39c:	ebfffffe 	bl	0 <sdio_cmd52_writes>
 3a0:	e3a03002 	mov	r3, #2
 3a4:	e3a02040 	mov	r2, #64	; 0x40
 3a8:	e3a01e11 	mov	r1, #272	; 0x110
 3ac:	e1a00004 	mov	r0, r4
 3b0:	ebfffffe 	bl	0 <sdio_cmd52_writes>
 3b4:	e3a03002 	mov	r3, #2
 3b8:	e3a02c02 	mov	r2, #512	; 0x200
 3bc:	e3a01e21 	mov	r1, #528	; 0x210
 3c0:	e1a00004 	mov	r0, r4
 3c4:	ebfffffe 	bl	0 <sdio_cmd52_writes>
 3c8:	e3a02002 	mov	r2, #2
 3cc:	e1a01002 	mov	r1, r2
 3d0:	e3a03001 	mov	r3, #1
 3d4:	e1a00004 	mov	r0, r4
 3d8:	ebfffffe 	bl	0 <sdio_cmd52_writes>
 3dc:	e3a03001 	mov	r3, #1
 3e0:	e58d3000 	str	r3, [sp]
 3e4:	e1a00004 	mov	r0, r4
 3e8:	e3a03002 	mov	r3, #2
 3ec:	e3a020ff 	mov	r2, #255	; 0xff
 3f0:	e3a01003 	mov	r1, #3
 3f4:	ebfffffe 	bl	0 <sdio_cmd52_reads_check>
 3f8:	e1500004 	cmp	r0, r4
 3fc:	0a000149 	beq	928 <sdio_init+0x66c>
 400:	e3a00306 	mov	r0, #402653184	; 0x18000000
 404:	ebfffffe 	bl	0 <sdio_bak_window>
 408:	e28d200c 	add	r2, sp, #12
 40c:	e3a03004 	mov	r3, #4
 410:	e3a01902 	mov	r1, #32768	; 0x8000
 414:	e3a00001 	mov	r0, #1
 418:	ebfffffe 	bl	0 <sdio_cmd53_read>
 41c:	e3a03001 	mov	r3, #1
 420:	e1a00003 	mov	r0, r3
 424:	e3a02028 	mov	r2, #40	; 0x28
 428:	e59f1518 	ldr	r1, [pc, #1304]	; 948 <sdio_init+0x68c>
 42c:	ebfffffe 	bl	0 <sdio_cmd52_writes>
 430:	e3a03001 	mov	r3, #1
 434:	e28d200c 	add	r2, sp, #12
 438:	e1a00003 	mov	r0, r3
 43c:	e59f1504 	ldr	r1, [pc, #1284]	; 948 <sdio_init+0x68c>
 440:	ebfffffe 	bl	0 <sdio_cmd52_reads>
 444:	e3a03001 	mov	r3, #1
 448:	e1a00003 	mov	r0, r3
 44c:	e3a02021 	mov	r2, #33	; 0x21
 450:	e59f14f0 	ldr	r1, [pc, #1264]	; 948 <sdio_init+0x68c>
 454:	ebfffffe 	bl	0 <sdio_cmd52_writes>
 458:	e3a03001 	mov	r3, #1
 45c:	e1a00003 	mov	r0, r3
 460:	e3a02000 	mov	r2, #0
 464:	e59f14e0 	ldr	r1, [pc, #1248]	; 94c <sdio_init+0x690>
 468:	ebfffffe 	bl	0 <sdio_cmd52_writes>
 46c:	e28d200c 	add	r2, sp, #12
 470:	e3a03004 	mov	r3, #4
 474:	e3a01902 	mov	r1, #32768	; 0x8000
 478:	e3a00001 	mov	r0, #1
 47c:	ebfffffe 	bl	0 <sdio_cmd53_read>
 480:	e28d200c 	add	r2, sp, #12
 484:	e3a03004 	mov	r3, #4
 488:	e59f14c0 	ldr	r1, [pc, #1216]	; 950 <sdio_init+0x694>
 48c:	e3a00001 	mov	r0, #1
 490:	ebfffffe 	bl	0 <sdio_cmd53_read>
 494:	e3a01003 	mov	r1, #3
 498:	e59f04b4 	ldr	r0, [pc, #1204]	; 954 <sdio_init+0x698>
 49c:	ebfffffe 	bl	0 <sdio_bak_write32>
 4a0:	e3a01007 	mov	r1, #7
 4a4:	e59f04ac 	ldr	r0, [pc, #1196]	; 958 <sdio_init+0x69c>
 4a8:	ebfffffe 	bl	0 <sdio_bak_write32>
 4ac:	e3a01000 	mov	r1, #0
 4b0:	e59f04a4 	ldr	r0, [pc, #1188]	; 95c <sdio_init+0x6a0>
 4b4:	ebfffffe 	bl	0 <sdio_bak_write32>
 4b8:	e3a01005 	mov	r1, #5
 4bc:	e59f0494 	ldr	r0, [pc, #1172]	; 958 <sdio_init+0x69c>
 4c0:	ebfffffe 	bl	0 <sdio_bak_write32>
 4c4:	e3a01003 	mov	r1, #3
 4c8:	e59f0490 	ldr	r0, [pc, #1168]	; 960 <sdio_init+0x6a4>
 4cc:	ebfffffe 	bl	0 <sdio_bak_write32>
 4d0:	e3a01000 	mov	r1, #0
 4d4:	e59f0488 	ldr	r0, [pc, #1160]	; 964 <sdio_init+0x6a8>
 4d8:	ebfffffe 	bl	0 <sdio_bak_write32>
 4dc:	e3a01001 	mov	r1, #1
 4e0:	e59f0478 	ldr	r0, [pc, #1144]	; 960 <sdio_init+0x6a4>
 4e4:	ebfffffe 	bl	0 <sdio_bak_write32>
 4e8:	e28d100c 	add	r1, sp, #12
 4ec:	e59f046c 	ldr	r0, [pc, #1132]	; 960 <sdio_init+0x6a4>
 4f0:	ebfffffe 	bl	0 <sdio_bak_read32>
 4f4:	e3500000 	cmp	r0, #0
 4f8:	0a000002 	beq	508 <sdio_init+0x24c>
 4fc:	e5dd300c 	ldrb	r3, [sp, #12]
 500:	e3530001 	cmp	r3, #1
 504:	0a000000 	beq	50c <sdio_init+0x250>
 508:	ebfffffe 	bl	0 <disp_log_break>
 50c:	e3a01003 	mov	r1, #3
 510:	e59f0450 	ldr	r0, [pc, #1104]	; 968 <sdio_init+0x6ac>
 514:	ebfffffe 	bl	0 <sdio_bak_write32>
 518:	e3a01000 	mov	r1, #0
 51c:	e59f0448 	ldr	r0, [pc, #1096]	; 96c <sdio_init+0x6b0>
 520:	ebfffffe 	bl	0 <sdio_bak_write32>
 524:	e28d100c 	add	r1, sp, #12
 528:	e59f0430 	ldr	r0, [pc, #1072]	; 960 <sdio_init+0x6a4>
 52c:	ebfffffe 	bl	0 <sdio_bak_read32>
 530:	e3500000 	cmp	r0, #0
 534:	0a000002 	beq	544 <sdio_init+0x288>
 538:	e5dd300c 	ldrb	r3, [sp, #12]
 53c:	e3530001 	cmp	r3, #1
 540:	0a000000 	beq	548 <sdio_init+0x28c>
 544:	ebfffffe 	bl	0 <disp_log_break>
 548:	e28d100c 	add	r1, sp, #12
 54c:	e59f0410 	ldr	r0, [pc, #1040]	; 964 <sdio_init+0x6a8>
 550:	ebfffffe 	bl	0 <sdio_bak_read32>
 554:	e3500000 	cmp	r0, #0
 558:	0a0000f0 	beq	920 <sdio_init+0x664>
 55c:	e5dd300c 	ldrb	r3, [sp, #12]
 560:	e3530000 	cmp	r3, #0
 564:	1a0000ed 	bne	920 <sdio_init+0x664>
 568:	e28d100c 	add	r1, sp, #12
 56c:	e59f03fc 	ldr	r0, [pc, #1020]	; 970 <sdio_init+0x6b4>
 570:	ebfffffe 	bl	0 <sdio_bak_read32>
 574:	e3a01000 	mov	r1, #0
 578:	e59f03e8 	ldr	r0, [pc, #1000]	; 968 <sdio_init+0x6ac>
 57c:	ebfffffe 	bl	0 <sdio_bak_write32>
 580:	e28d100c 	add	r1, sp, #12
 584:	e59f03e8 	ldr	r0, [pc, #1000]	; 974 <sdio_init+0x6b8>
 588:	ebfffffe 	bl	0 <sdio_bak_read32>
 58c:	e3a01001 	mov	r1, #1
 590:	e59f03d0 	ldr	r0, [pc, #976]	; 968 <sdio_init+0x6ac>
 594:	ebfffffe 	bl	0 <sdio_bak_write32>
 598:	e28d100c 	add	r1, sp, #12
 59c:	e59f03d0 	ldr	r0, [pc, #976]	; 974 <sdio_init+0x6b8>
 5a0:	ebfffffe 	bl	0 <sdio_bak_read32>
 5a4:	e3a01002 	mov	r1, #2
 5a8:	e59f03b8 	ldr	r0, [pc, #952]	; 968 <sdio_init+0x6ac>
 5ac:	ebfffffe 	bl	0 <sdio_bak_write32>
 5b0:	e28d100c 	add	r1, sp, #12
 5b4:	e59f03b8 	ldr	r0, [pc, #952]	; 974 <sdio_init+0x6b8>
 5b8:	ebfffffe 	bl	0 <sdio_bak_read32>
 5bc:	e3a01003 	mov	r1, #3
 5c0:	e59f03a0 	ldr	r0, [pc, #928]	; 968 <sdio_init+0x6ac>
 5c4:	ebfffffe 	bl	0 <sdio_bak_write32>
 5c8:	e3a03001 	mov	r3, #1
 5cc:	e58d3000 	str	r3, [sp]
 5d0:	e3a020ff 	mov	r2, #255	; 0xff
 5d4:	e3a010f1 	mov	r1, #241	; 0xf1
 5d8:	e3a00000 	mov	r0, #0
 5dc:	ebfffffe 	bl	0 <sdio_cmd52_reads_check>
 5e0:	e3500000 	cmp	r0, #0
 5e4:	0a0000d3 	beq	938 <sdio_init+0x67c>
 5e8:	e3a03001 	mov	r3, #1
 5ec:	e3a02003 	mov	r2, #3
 5f0:	e3a010f1 	mov	r1, #241	; 0xf1
 5f4:	e3a00000 	mov	r0, #0
 5f8:	ebfffffe 	bl	0 <sdio_cmd52_writes>
 5fc:	e3a03004 	mov	r3, #4
 600:	e28d200c 	add	r2, sp, #12
 604:	e3a01c86 	mov	r1, #34304	; 0x8600
 608:	e3a00001 	mov	r0, #1
 60c:	ebfffffe 	bl	0 <sdio_cmd53_read>
 610:	e5ddc00d 	ldrb	ip, [sp, #13]
 614:	e3a03004 	mov	r3, #4
 618:	e28d200c 	add	r2, sp, #12
 61c:	e38cc040 	orr	ip, ip, #64	; 0x40
 620:	e3a01c86 	mov	r1, #34304	; 0x8600
 624:	e3a00001 	mov	r0, #1
 628:	e5cdc00d 	strb	ip, [sp, #13]
 62c:	ebfffffe 	bl	0 <sdio_cmd53_write>
 630:	e3a02002 	mov	r2, #2
 634:	e1a01002 	mov	r1, r2
 638:	e3a03001 	mov	r3, #1
 63c:	e3a00000 	mov	r0, #0
 640:	ebfffffe 	bl	0 <sdio_cmd52_writes>
 644:	e3a03001 	mov	r3, #1
 648:	e1a00003 	mov	r0, r3
 64c:	e3a02000 	mov	r2, #0
 650:	e59f12f0 	ldr	r1, [pc, #752]	; 948 <sdio_init+0x68c>
 654:	ebfffffe 	bl	0 <sdio_cmd52_writes>
 658:	e59f0318 	ldr	r0, [pc, #792]	; 978 <sdio_init+0x6bc>
 65c:	ebfffffe 	bl	0 <usdelay>
 660:	e3a03001 	mov	r3, #1
 664:	e1a00003 	mov	r0, r3
 668:	e3a02008 	mov	r2, #8
 66c:	e59f12d4 	ldr	r1, [pc, #724]	; 948 <sdio_init+0x68c>
 670:	ebfffffe 	bl	0 <sdio_cmd52_writes>
 674:	e3a00001 	mov	r0, #1
 678:	e58d0000 	str	r0, [sp]
 67c:	e3a03048 	mov	r3, #72	; 0x48
 680:	e3a020ff 	mov	r2, #255	; 0xff
 684:	e59f12bc 	ldr	r1, [pc, #700]	; 948 <sdio_init+0x68c>
 688:	ebfffffe 	bl	0 <sdio_cmd52_reads_check>
 68c:	e3500000 	cmp	r0, #0
 690:	0a0000a6 	beq	930 <sdio_init+0x674>
 694:	ebfffffe 	bl	170 <write_firmware>
 698:	e3a00916 	mov	r0, #360448	; 0x58000
 69c:	ebfffffe 	bl	0 <sdio_bak_window>
 6a0:	e28d2018 	add	r2, sp, #24
 6a4:	e3a03004 	mov	r3, #4
 6a8:	e59f12cc 	ldr	r1, [pc, #716]	; 97c <sdio_init+0x6c0>
 6ac:	e3a00001 	mov	r0, #1
 6b0:	ebfffffe 	bl	0 <sdio_cmd53_read>
 6b4:	ebfffffe 	bl	258 <write_nvram>
 6b8:	e28d2018 	add	r2, sp, #24
 6bc:	e3a0302c 	mov	r3, #44	; 0x2c
 6c0:	e59f12b8 	ldr	r1, [pc, #696]	; 980 <sdio_init+0x6c4>
 6c4:	e3a00001 	mov	r0, #1
 6c8:	ebfffffe 	bl	0 <sdio_cmd53_read>
 6cc:	e28d100c 	add	r1, sp, #12
 6d0:	e59f0288 	ldr	r0, [pc, #648]	; 960 <sdio_init+0x6a4>
 6d4:	ebfffffe 	bl	0 <sdio_bak_read32>
 6d8:	e28d100c 	add	r1, sp, #12
 6dc:	e59f0280 	ldr	r0, [pc, #640]	; 964 <sdio_init+0x6a8>
 6e0:	ebfffffe 	bl	0 <sdio_bak_read32>
 6e4:	e3e01000 	mvn	r1, #0
 6e8:	e59f0294 	ldr	r0, [pc, #660]	; 984 <sdio_init+0x6c8>
 6ec:	ebfffffe 	bl	0 <sdio_bak_write32>
 6f0:	e3a01003 	mov	r1, #3
 6f4:	e59f0258 	ldr	r0, [pc, #600]	; 954 <sdio_init+0x698>
 6f8:	ebfffffe 	bl	0 <sdio_bak_write32>
 6fc:	e3a01000 	mov	r1, #0
 700:	e59f0280 	ldr	r0, [pc, #640]	; 988 <sdio_init+0x6cc>
 704:	ebfffffe 	bl	0 <sdio_bak_write32>
 708:	e3a01001 	mov	r1, #1
 70c:	e59f0240 	ldr	r0, [pc, #576]	; 954 <sdio_init+0x698>
 710:	ebfffffe 	bl	0 <sdio_bak_write32>
 714:	e28d100c 	add	r1, sp, #12
 718:	e59f0234 	ldr	r0, [pc, #564]	; 954 <sdio_init+0x698>
 71c:	ebfffffe 	bl	0 <sdio_bak_read32>
 720:	e3a00306 	mov	r0, #402653184	; 0x18000000
 724:	ebfffffe 	bl	0 <sdio_bak_window>
 728:	e3a03001 	mov	r3, #1
 72c:	e1a00003 	mov	r0, r3
 730:	e3a02000 	mov	r2, #0
 734:	e59f120c 	ldr	r1, [pc, #524]	; 948 <sdio_init+0x68c>
 738:	ebfffffe 	bl	0 <sdio_cmd52_writes>
 73c:	e3a03001 	mov	r3, #1
 740:	e1a00003 	mov	r0, r3
 744:	e3a02010 	mov	r2, #16
 748:	e59f11f8 	ldr	r1, [pc, #504]	; 948 <sdio_init+0x68c>
 74c:	ebfffffe 	bl	0 <sdio_cmd52_writes>
 750:	e3a03001 	mov	r3, #1
 754:	e1a00003 	mov	r0, r3
 758:	e28d200c 	add	r2, sp, #12
 75c:	e59f11e4 	ldr	r1, [pc, #484]	; 948 <sdio_init+0x68c>
 760:	ebfffffe 	bl	0 <sdio_cmd52_reads>
 764:	e59f0220 	ldr	r0, [pc, #544]	; 98c <sdio_init+0x6d0>
 768:	ebfffffe 	bl	0 <usdelay>
 76c:	e3a03001 	mov	r3, #1
 770:	e1a00003 	mov	r0, r3
 774:	e28d200c 	add	r2, sp, #12
 778:	e59f11c8 	ldr	r1, [pc, #456]	; 948 <sdio_init+0x68c>
 77c:	ebfffffe 	bl	0 <sdio_cmd52_reads>
 780:	e3500000 	cmp	r0, #0
 784:	0a000002 	beq	794 <sdio_init+0x4d8>
 788:	e5dd300c 	ldrb	r3, [sp, #12]
 78c:	e35300d0 	cmp	r3, #208	; 0xd0
 790:	0a000000 	beq	798 <sdio_init+0x4dc>
 794:	ebfffffe 	bl	0 <disp_log_break>
 798:	e3a03001 	mov	r3, #1
 79c:	e1a00003 	mov	r0, r3
 7a0:	e3a020d2 	mov	r2, #210	; 0xd2
 7a4:	e59f119c 	ldr	r1, [pc, #412]	; 948 <sdio_init+0x68c>
 7a8:	ebfffffe 	bl	0 <sdio_cmd52_writes>
 7ac:	e3a01701 	mov	r1, #262144	; 0x40000
 7b0:	e59f01d8 	ldr	r0, [pc, #472]	; 990 <sdio_init+0x6d4>
 7b4:	ebfffffe 	bl	0 <sdio_bak_write32>
 7b8:	e3a03001 	mov	r3, #1
 7bc:	e3a02006 	mov	r2, #6
 7c0:	e3a01002 	mov	r1, #2
 7c4:	e3a00000 	mov	r0, #0
 7c8:	ebfffffe 	bl	0 <sdio_cmd52_writes>
 7cc:	e3a03001 	mov	r3, #1
 7d0:	e28d200c 	add	r2, sp, #12
 7d4:	e3a01003 	mov	r1, #3
 7d8:	e3a00000 	mov	r0, #0
 7dc:	ebfffffe 	bl	0 <sdio_cmd52_reads>
 7e0:	e59f01ac 	ldr	r0, [pc, #428]	; 994 <sdio_init+0x6d8>
 7e4:	ebfffffe 	bl	0 <usdelay>
 7e8:	e3a03001 	mov	r3, #1
 7ec:	e28d200c 	add	r2, sp, #12
 7f0:	e3a01003 	mov	r1, #3
 7f4:	e3a00000 	mov	r0, #0
 7f8:	ebfffffe 	bl	0 <sdio_cmd52_reads>
 7fc:	e3500000 	cmp	r0, #0
 800:	0a000002 	beq	810 <sdio_init+0x554>
 804:	e5dd300c 	ldrb	r3, [sp, #12]
 808:	e3530006 	cmp	r3, #6
 80c:	0a000000 	beq	814 <sdio_init+0x558>
 810:	ebfffffe 	bl	0 <disp_log_break>
 814:	e59f117c 	ldr	r1, [pc, #380]	; 998 <sdio_init+0x6dc>
 818:	e59f017c 	ldr	r0, [pc, #380]	; 99c <sdio_init+0x6e0>
 81c:	ebfffffe 	bl	0 <sdio_bak_write32>
 820:	e28d100c 	add	r1, sp, #12
 824:	e59f0174 	ldr	r0, [pc, #372]	; 9a0 <sdio_init+0x6e4>
 828:	ebfffffe 	bl	0 <sdio_bak_read32>
 82c:	e3a00306 	mov	r0, #402653184	; 0x18000000
 830:	ebfffffe 	bl	0 <sdio_bak_window>
 834:	e3a03001 	mov	r3, #1
 838:	e1a00003 	mov	r0, r3
 83c:	e3a02002 	mov	r2, #2
 840:	e59f115c 	ldr	r1, [pc, #348]	; 9a4 <sdio_init+0x6e8>
 844:	ebfffffe 	bl	0 <sdio_cmd52_writes>
 848:	e3a03001 	mov	r3, #1
 84c:	e3a02006 	mov	r2, #6
 850:	e3a010f0 	mov	r1, #240	; 0xf0
 854:	e3a00000 	mov	r0, #0
 858:	ebfffffe 	bl	0 <sdio_cmd52_writes>
 85c:	e3a03001 	mov	r3, #1
 860:	e3a02007 	mov	r2, #7
 864:	e3a01004 	mov	r1, #4
 868:	e3a00000 	mov	r0, #0
 86c:	ebfffffe 	bl	0 <sdio_cmd52_writes>
 870:	e28d200c 	add	r2, sp, #12
 874:	e3a03001 	mov	r3, #1
 878:	e3a01005 	mov	r1, #5
 87c:	e3a00000 	mov	r0, #0
 880:	ebfffffe 	bl	0 <sdio_cmd52_reads>
 884:	e28d100c 	add	r1, sp, #12
 888:	e59f00f4 	ldr	r0, [pc, #244]	; 984 <sdio_init+0x6c8>
 88c:	ebfffffe 	bl	0 <sdio_bak_read32>
 890:	e59f1110 	ldr	r1, [pc, #272]	; 9a8 <sdio_init+0x6ec>
 894:	e59f00e8 	ldr	r0, [pc, #232]	; 984 <sdio_init+0x6c8>
 898:	ebfffffe 	bl	0 <sdio_bak_write32>
 89c:	e28d100c 	add	r1, sp, #12
 8a0:	e59f0104 	ldr	r0, [pc, #260]	; 9ac <sdio_init+0x6f0>
 8a4:	ebfffffe 	bl	0 <sdio_bak_read32>
 8a8:	e3a01002 	mov	r1, #2
 8ac:	e59f00fc 	ldr	r0, [pc, #252]	; 9b0 <sdio_init+0x6f4>
 8b0:	ebfffffe 	bl	0 <sdio_bak_write32>
 8b4:	e28d100c 	add	r1, sp, #12
 8b8:	e59f00e0 	ldr	r0, [pc, #224]	; 9a0 <sdio_init+0x6e4>
 8bc:	ebfffffe 	bl	0 <sdio_bak_read32>
 8c0:	e28d100c 	add	r1, sp, #12
 8c4:	e59f00e8 	ldr	r0, [pc, #232]	; 9b4 <sdio_init+0x6f8>
 8c8:	ebfffffe 	bl	0 <sdio_bak_read32>
 8cc:	e3a0090e 	mov	r0, #229376	; 0x38000
 8d0:	ebfffffe 	bl	0 <sdio_bak_window>
 8d4:	e28d2018 	add	r2, sp, #24
 8d8:	e3a03040 	mov	r3, #64	; 0x40
 8dc:	e59f10d4 	ldr	r1, [pc, #212]	; 9b8 <sdio_init+0x6fc>
 8e0:	e3a00001 	mov	r0, #1
 8e4:	ebfffffe 	bl	0 <sdio_cmd53_read>
 8e8:	e28d100c 	add	r1, sp, #12
 8ec:	e59f0090 	ldr	r0, [pc, #144]	; 984 <sdio_init+0x6c8>
 8f0:	ebfffffe 	bl	0 <sdio_bak_read32>
 8f4:	e3a01080 	mov	r1, #128	; 0x80
 8f8:	e59f0084 	ldr	r0, [pc, #132]	; 984 <sdio_init+0x6c8>
 8fc:	ebfffffe 	bl	0 <sdio_bak_write32>
 900:	e28d2018 	add	r2, sp, #24
 904:	e3a03040 	mov	r3, #64	; 0x40
 908:	e3a01902 	mov	r1, #32768	; 0x8000
 90c:	e3a00002 	mov	r0, #2
 910:	ebfffffe 	bl	0 <sdio_cmd53_read>
 914:	e1a00005 	mov	r0, r5
 918:	e28ddf89 	add	sp, sp, #548	; 0x224
 91c:	e8bd8030 	pop	{r4, r5, pc}
 920:	ebfffffe 	bl	0 <disp_log_break>
 924:	eaffff0f 	b	568 <sdio_init+0x2ac>
 928:	ebfffffe 	bl	0 <disp_log_break>
 92c:	eafffeb3 	b	400 <sdio_init+0x144>
 930:	ebfffffe 	bl	0 <disp_log_break>
 934:	eaffff56 	b	694 <sdio_init+0x3d8>
 938:	ebfffffe 	bl	0 <disp_log_break>
 93c:	eaffff29 	b	5e8 <sdio_init+0x32c>
 940:	00004e20 	.word	0x00004e20
 944:	000001aa 	.word	0x000001aa
 948:	0001000e 	.word	0x0001000e
 94c:	0001000f 	.word	0x0001000f
 950:	000080fc 	.word	0x000080fc
 954:	18103408 	.word	0x18103408
 958:	18101408 	.word	0x18101408
 95c:	18101800 	.word	0x18101800
 960:	18104408 	.word	0x18104408
 964:	18104800 	.word	0x18104800
 968:	18004010 	.word	0x18004010
 96c:	18004044 	.word	0x18004044
 970:	18004000 	.word	0x18004000
 974:	18004040 	.word	0x18004040
 978:	0000afc8 	.word	0x0000afc8
 97c:	0000ee80 	.word	0x0000ee80
 980:	0000ffd4 	.word	0x0000ffd4
 984:	18002020 	.word	0x18002020
 988:	18103800 	.word	0x18103800
 98c:	0000c350 	.word	0x0000c350
 990:	18002048 	.word	0x18002048
 994:	000186a0 	.word	0x000186a0
 998:	200000f0 	.word	0x200000f0
 99c:	18002024 	.word	0x18002024
 9a0:	18000508 	.word	0x18000508
 9a4:	0001001e 	.word	0x0001001e
 9a8:	200000c0 	.word	0x200000c0
 9ac:	1800204c 	.word	0x1800204c
 9b0:	18002040 	.word	0x18002040
 9b4:	0006fffc 	.word	0x0006fffc
 9b8:	000070d4 	.word	0x000070d4

000009bc <sd_setup>:
 9bc:	e92d4010 	push	{r4, lr}
 9c0:	e3a02000 	mov	r2, #0
 9c4:	e3a01001 	mov	r1, #1
 9c8:	e3a00022 	mov	r0, #34	; 0x22
 9cc:	ebfffffe 	bl	0 <gpio_set>
 9d0:	e3a02002 	mov	r2, #2
 9d4:	e3a01000 	mov	r1, #0
 9d8:	e3a00023 	mov	r0, #35	; 0x23
 9dc:	ebfffffe 	bl	0 <gpio_set>
 9e0:	e3a02002 	mov	r2, #2
 9e4:	e3a01000 	mov	r1, #0
 9e8:	e3a00024 	mov	r0, #36	; 0x24
 9ec:	ebfffffe 	bl	0 <gpio_set>
 9f0:	e3a02002 	mov	r2, #2
 9f4:	e3a01000 	mov	r1, #0
 9f8:	e3a00025 	mov	r0, #37	; 0x25
 9fc:	ebfffffe 	bl	0 <gpio_set>
 a00:	e3a02002 	mov	r2, #2
 a04:	e3a01000 	mov	r1, #0
 a08:	e3a00026 	mov	r0, #38	; 0x26
 a0c:	ebfffffe 	bl	0 <gpio_set>
 a10:	e3a02002 	mov	r2, #2
 a14:	e3a01000 	mov	r1, #0
 a18:	e3a00027 	mov	r0, #39	; 0x27
 a1c:	e8bd4010 	pop	{r4, lr}
 a20:	eafffffe 	b	0 <gpio_set>

00000a24 <scanit>:
 a24:	e92d4ff0 	push	{r4, r5, r6, r7, r8, r9, sl, fp, lr}
 a28:	e24ddf47 	sub	sp, sp, #284	; 0x11c
 a2c:	e3a04000 	mov	r4, #0
 a30:	e28d5018 	add	r5, sp, #24
 a34:	e3a02c01 	mov	r2, #256	; 0x100
 a38:	e1a01004 	mov	r1, r4
 a3c:	e1a00005 	mov	r0, r5
 a40:	e58d4000 	str	r4, [sp]
 a44:	ebfffffe 	bl	0 <memset>
 a48:	e58d4004 	str	r4, [sp, #4]
 a4c:	e58d4007 	str	r4, [sp, #7]
 a50:	ebfffffe 	bl	0 <crc7_init>
 a54:	ebfffffe 	bl	0 <qcrc16r_init>
 a58:	e1a01004 	mov	r1, r4
 a5c:	e1a0000d 	mov	r0, sp
 a60:	ebfffffe 	bl	0 <ustimeout>
 a64:	e59f022c 	ldr	r0, [pc, #556]	; c98 <scanit+0x274>
 a68:	ebfffffe 	bl	0 <puts>
 a6c:	ebfffffe 	bl	0 <__getreent>
 a70:	e5900008 	ldr	r0, [r0, #8]
 a74:	ebfffffe 	bl	0 <fflush>
 a78:	ebfffffe 	bl	0 <osc_init>
 a7c:	e1a02004 	mov	r2, r4
 a80:	e3a01001 	mov	r1, #1
 a84:	e3a0002f 	mov	r0, #47	; 0x2f
 a88:	ebfffffe 	bl	0 <gpio_set>
 a8c:	ebfffffe 	bl	9bc <sd_setup>
 a90:	e3a01001 	mov	r1, #1
 a94:	e3a00029 	mov	r0, #41	; 0x29
 a98:	ebfffffe 	bl	0 <gpio_out>
 a9c:	e59f01f8 	ldr	r0, [pc, #504]	; c9c <scanit+0x278>
 aa0:	ebfffffe 	bl	0 <flash_init>
 aa4:	e59f01f0 	ldr	r0, [pc, #496]	; c9c <scanit+0x278>
 aa8:	ebfffffe 	bl	0 <usdelay>
 aac:	e3a00002 	mov	r0, #2
 ab0:	ebfffffe 	bl	0 <log_enable>
 ab4:	ebfffffe 	bl	2bc <sdio_init>
 ab8:	e1a02005 	mov	r2, r5
 abc:	e3a03040 	mov	r3, #64	; 0x40
 ac0:	e3a01902 	mov	r1, #32768	; 0x8000
 ac4:	e3a00002 	mov	r0, #2
 ac8:	ebfffffe 	bl	0 <sdio_cmd53_read>
 acc:	e1a01004 	mov	r1, r4
 ad0:	e28d2004 	add	r2, sp, #4
 ad4:	e3a03006 	mov	r3, #6
 ad8:	e59f01c0 	ldr	r0, [pc, #448]	; ca0 <scanit+0x27c>
 adc:	ebfffffe 	bl	0 <ioctl_get_data>
 ae0:	e1a04000 	mov	r4, r0
 ae4:	e59f01b8 	ldr	r0, [pc, #440]	; ca4 <scanit+0x280>
 ae8:	ebfffffe 	bl	0 <printf>
 aec:	e3540000 	cmp	r4, #0
 af0:	0a000065 	beq	c8c <scanit+0x268>
 af4:	e28d0004 	add	r0, sp, #4
 af8:	ebfffffe 	bl	6c <disp_mac_addr>
 afc:	e3a03c01 	mov	r3, #256	; 0x100
 b00:	e1a02005 	mov	r2, r5
 b04:	e3a01000 	mov	r1, #0
 b08:	e59f0198 	ldr	r0, [pc, #408]	; ca8 <scanit+0x284>
 b0c:	ebfffffe 	bl	0 <ioctl_get_data>
 b10:	e59f1194 	ldr	r1, [pc, #404]	; cac <scanit+0x288>
 b14:	e3500000 	cmp	r0, #0
 b18:	11a01005 	movne	r1, r5
 b1c:	e59f018c 	ldr	r0, [pc, #396]	; cb0 <scanit+0x28c>
 b20:	ebfffffe 	bl	0 <printf>
 b24:	e3a02028 	mov	r2, #40	; 0x28
 b28:	e3a01000 	mov	r1, #0
 b2c:	e3a000b9 	mov	r0, #185	; 0xb9
 b30:	ebfffffe 	bl	0 <ioctl_wr_int32>
 b34:	e3a02000 	mov	r2, #0
 b38:	e3a010c8 	mov	r1, #200	; 0xc8
 b3c:	e3a00002 	mov	r0, #2
 b40:	ebfffffe 	bl	0 <ioctl_wr_int32>
 b44:	e3500000 	cmp	r0, #0
 b48:	1a000004 	bne	b60 <scanit+0x13c>
 b4c:	e59f0160 	ldr	r0, [pc, #352]	; cb4 <scanit+0x290>
 b50:	ebfffffe 	bl	0 <puts>
 b54:	ebfffffe 	bl	0 <__getreent>
 b58:	e5900008 	ldr	r0, [r0, #8]
 b5c:	ebfffffe 	bl	0 <fflush>
 b60:	e3a01000 	mov	r1, #0
 b64:	e59f014c 	ldr	r0, [pc, #332]	; cb8 <scanit+0x294>
 b68:	ebfffffe 	bl	0 <sdio_bak_write32>
 b6c:	e1a02005 	mov	r2, r5
 b70:	e3a03040 	mov	r3, #64	; 0x40
 b74:	e3a01902 	mov	r1, #32768	; 0x8000
 b78:	e3a00002 	mov	r0, #2
 b7c:	ebfffffe 	bl	0 <sdio_cmd53_read>
 b80:	e59f0134 	ldr	r0, [pc, #308]	; cbc <scanit+0x298>
 b84:	ebfffffe 	bl	0 <ioctl_enable_evts>
 b88:	e3a03084 	mov	r3, #132	; 0x84
 b8c:	e59f212c 	ldr	r2, [pc, #300]	; cc0 <scanit+0x29c>
 b90:	e3a01000 	mov	r1, #0
 b94:	e59f0128 	ldr	r0, [pc, #296]	; cc4 <scanit+0x2a0>
 b98:	ebfffffe 	bl	0 <ioctl_set_data>
 b9c:	e59fa124 	ldr	sl, [pc, #292]	; cc8 <scanit+0x2a4>
 ba0:	e59f4124 	ldr	r4, [pc, #292]	; ccc <scanit+0x2a8>
 ba4:	e59f5124 	ldr	r5, [pc, #292]	; cd0 <scanit+0x2ac>
 ba8:	e59f8124 	ldr	r8, [pc, #292]	; cd4 <scanit+0x2b0>
 bac:	e1a0900a 	mov	r9, sl
 bb0:	e28ab03a 	add	fp, sl, #58	; 0x3a
 bb4:	e3a06000 	mov	r6, #0
 bb8:	e3a00001 	mov	r0, #1
 bbc:	ebfffffe 	bl	0 <usdelay>
 bc0:	e5d43000 	ldrb	r3, [r4]
 bc4:	e16f3f13 	clz	r3, r3
 bc8:	e1a032a3 	lsr	r3, r3, #5
 bcc:	e1a01003 	mov	r1, r3
 bd0:	e3a00022 	mov	r0, #34	; 0x22
 bd4:	e5c43000 	strb	r3, [r4]
 bd8:	ebfffffe 	bl	0 <gpio_out>
 bdc:	e1a01005 	mov	r1, r5
 be0:	e1a0000d 	mov	r0, sp
 be4:	ebfffffe 	bl	0 <ustimeout>
 be8:	e3500000 	cmp	r0, #0
 bec:	0afffff1 	beq	bb8 <scanit+0x194>
 bf0:	e2267001 	eor	r7, r6, #1
 bf4:	e1a01007 	mov	r1, r7
 bf8:	e3a0002f 	mov	r0, #47	; 0x2f
 bfc:	ebfffffe 	bl	0 <gpio_out>
 c00:	e3560000 	cmp	r6, #0
 c04:	1a000001 	bne	c10 <scanit+0x1ec>
 c08:	e1a06007 	mov	r6, r7
 c0c:	eaffffe9 	b	bb8 <scanit+0x194>
 c10:	e1a01009 	mov	r1, r9
 c14:	e3a02d19 	mov	r2, #1600	; 0x640
 c18:	e28d000c 	add	r0, sp, #12
 c1c:	ebfffffe 	bl	0 <ioctl_get_event>
 c20:	e1a03000 	mov	r3, r0
 c24:	e35300de 	cmp	r3, #222	; 0xde
 c28:	e1a01000 	mov	r1, r0
 c2c:	e1a00008 	mov	r0, r8
 c30:	9a00000f 	bls	c74 <scanit+0x250>
 c34:	ebfffffe 	bl	0 <printf>
 c38:	e1a0000b 	mov	r0, fp
 c3c:	ebfffffe 	bl	6c <disp_mac_addr>
 c40:	e1da1ab6 	ldrh	r1, [sl, #166]	; 0xa6
 c44:	e59f008c 	ldr	r0, [pc, #140]	; cd8 <scanit+0x2b4>
 c48:	e6bf1fb1 	rev16	r1, r1
 c4c:	e6ff1071 	uxth	r1, r1
 c50:	ebfffffe 	bl	0 <printf>
 c54:	e59f0080 	ldr	r0, [pc, #128]	; cdc <scanit+0x2b8>
 c58:	ebfffffe 	bl	0 <disp_ssid>
 c5c:	e3a0000a 	mov	r0, #10
 c60:	ebfffffe 	bl	0 <putchar>
 c64:	ebfffffe 	bl	0 <__getreent>
 c68:	e5900008 	ldr	r0, [r0, #8]
 c6c:	ebfffffe 	bl	0 <fflush>
 c70:	eaffffe4 	b	c08 <scanit+0x1e4>
 c74:	e3a0002e 	mov	r0, #46	; 0x2e
 c78:	ebfffffe 	bl	0 <putchar>
 c7c:	ebfffffe 	bl	0 <__getreent>
 c80:	e5900008 	ldr	r0, [r0, #8]
 c84:	ebfffffe 	bl	0 <fflush>
 c88:	eaffffde 	b	c08 <scanit+0x1e4>
 c8c:	e59f004c 	ldr	r0, [pc, #76]	; ce0 <scanit+0x2bc>
 c90:	ebfffffe 	bl	0 <printf>
 c94:	eaffff98 	b	afc <scanit+0xd8>
 c98:	00000040 	.word	0x00000040
 c9c:	00002710 	.word	0x00002710
 ca0:	00000058 	.word	0x00000058
 ca4:	00000068 	.word	0x00000068
 ca8:	00000084 	.word	0x00000084
 cac:	00000030 	.word	0x00000030
 cb0:	00000088 	.word	0x00000088
 cb4:	00000098 	.word	0x00000098
 cb8:	18002020 	.word	0x18002020
 cbc:	000002b4 	.word	0x000002b4
 cc0:	000002c4 	.word	0x000002c4
 cc4:	000000b0 	.word	0x000000b0
	...
 cd0:	000186a0 	.word	0x000186a0
 cd4:	000000b8 	.word	0x000000b8
 cd8:	000000c4 	.word	0x000000c4
 cdc:	00000070 	.word	0x00000070
 ce0:	00000078 	.word	0x00000078

zw_gpio.o:     file format elf32-littlearm


Disassembly of section .text:

00000000 <flash_open_read>:
   0:	e59f2064 	ldr	r2, [pc, #100]	; 6c <flash_open_read+0x6c>
   4:	e24dd008 	sub	sp, sp, #8
   8:	e1a0c840 	asr	ip, r0, #16
   c:	e1a01440 	asr	r1, r0, #8
  10:	e3a03003 	mov	r3, #3
  14:	e5cd0007 	strb	r0, [sp, #7]
  18:	e5cd1006 	strb	r1, [sp, #6]
  1c:	e5cd3004 	strb	r3, [sp, #4]
  20:	e5cdc005 	strb	ip, [sp, #5]
  24:	e592c000 	ldr	ip, [r2]
  28:	e1a00002 	mov	r0, r2
  2c:	e1a0100d 	mov	r1, sp
  30:	e28d3004 	add	r3, sp, #4
  34:	e38cc080 	orr	ip, ip, #128	; 0x80
  38:	e582c000 	str	ip, [r2]
  3c:	e4d32001 	ldrb	r2, [r3], #1
  40:	e590c000 	ldr	ip, [r0]
  44:	e31c0802 	tst	ip, #131072	; 0x20000
  48:	e5802004 	str	r2, [r0, #4]
  4c:	1a000000 	bne	54 <flash_open_read+0x54>
  50:	eafffffe 	b	50 <flash_open_read+0x50>
  54:	e28dc008 	add	ip, sp, #8
  58:	e153000c 	cmp	r3, ip
  5c:	e4c12001 	strb	r2, [r1], #1
  60:	1afffff5 	bne	3c <flash_open_read+0x3c>
  64:	e28dd008 	add	sp, sp, #8
  68:	e12fff1e 	bx	lr
  6c:	20204000 	.word	0x20204000

00000070 <flash_read>:
  70:	e3510000 	cmp	r1, #0
  74:	012fff1e 	bxeq	lr
  78:	e3a0c000 	mov	ip, #0
  7c:	e59f302c 	ldr	r3, [pc, #44]	; b0 <flash_read+0x40>
  80:	e52de004 	push	{lr}		; (str lr, [sp, #-4]!)
  84:	e0801001 	add	r1, r0, r1
  88:	e1a0e00c 	mov	lr, ip
  8c:	e5932000 	ldr	r2, [r3]
  90:	e583e004 	str	lr, [r3, #4]
  94:	e3120802 	tst	r2, #131072	; 0x20000
  98:	1a000000 	bne	a0 <flash_read+0x30>
  9c:	eafffffe 	b	9c <flash_read+0x2c>
  a0:	e4c0c001 	strb	ip, [r0], #1
  a4:	e1510000 	cmp	r1, r0
  a8:	1afffff7 	bne	8c <flash_read+0x1c>
  ac:	e49df004 	pop	{pc}		; (ldr pc, [sp], #4)
  b0:	20204000 	.word	0x20204000

000000b4 <flash_close>:
  b4:	e59f200c 	ldr	r2, [pc, #12]	; c8 <flash_close+0x14>
  b8:	e5923000 	ldr	r3, [r2]
  bc:	e3c33080 	bic	r3, r3, #128	; 0x80
  c0:	e5823000 	str	r3, [r2]
  c4:	e12fff1e 	bx	lr
  c8:	20204000 	.word	0x20204000

000000cc <spi0_cs>:
  cc:	e59f3018 	ldr	r3, [pc, #24]	; ec <spi0_cs+0x20>
  d0:	e59f2014 	ldr	r2, [pc, #20]	; ec <spi0_cs+0x20>
  d4:	e3500000 	cmp	r0, #0
  d8:	e5933000 	ldr	r3, [r3]
  dc:	13833080 	orrne	r3, r3, #128	; 0x80
  e0:	03c33080 	biceq	r3, r3, #128	; 0x80
  e4:	e5823000 	str	r3, [r2]
  e8:	e12fff1e 	bx	lr
  ec:	20204000 	.word	0x20204000

000000f0 <spi0_xfer>:
  f0:	e3520000 	cmp	r2, #0
  f4:	012fff1e 	bxeq	lr
  f8:	e59fc02c 	ldr	ip, [pc, #44]	; 12c <spi0_xfer+0x3c>
  fc:	e52de004 	push	{lr}		; (str lr, [sp, #-4]!)
 100:	e080e002 	add	lr, r0, r2
 104:	e4d03001 	ldrb	r3, [r0], #1
 108:	e59c2000 	ldr	r2, [ip]
 10c:	e3120802 	tst	r2, #131072	; 0x20000
 110:	e58c3004 	str	r3, [ip, #4]
 114:	1a000000 	bne	11c <spi0_xfer+0x2c>
 118:	eafffffe 	b	118 <spi0_xfer+0x28>
 11c:	e15e0000 	cmp	lr, r0
 120:	e4c13001 	strb	r3, [r1], #1
 124:	1afffff6 	bne	104 <spi0_xfer+0x14>
 128:	e49df004 	pop	{pc}		; (ldr pc, [sp], #4)
 12c:	20204000 	.word	0x20204000

00000130 <mmap_init>:
 130:	e12fff1e 	bx	lr

00000134 <disp_mem>:
 134:	e92d4070 	push	{r4, r5, r6, lr}
 138:	e2515000 	subs	r5, r1, #0
 13c:	d8bd8070 	pople	{r4, r5, r6, pc}
 140:	e2404001 	sub	r4, r0, #1
 144:	e59f6018 	ldr	r6, [pc, #24]	; 164 <disp_mem+0x30>
 148:	e0845005 	add	r5, r4, r5
 14c:	e5f41001 	ldrb	r1, [r4, #1]!
 150:	e1a00006 	mov	r0, r6
 154:	ebfffffe 	bl	0 <printf>
 158:	e1540005 	cmp	r4, r5
 15c:	1afffffa 	bne	14c <disp_mem+0x18>
 160:	e8bd8070 	pop	{r4, r5, r6, pc}
 164:	00000000 	.word	0x00000000

00000168 <dump_mem>:
 168:	e92d41f0 	push	{r4, r5, r6, r7, r8, lr}
 16c:	e2516000 	subs	r6, r1, #0
 170:	d8bd81f0 	pople	{r4, r5, r6, r7, r8, pc}
 174:	e1a05000 	mov	r5, r0
 178:	e59f8038 	ldr	r8, [pc, #56]	; 1b8 <dump_mem+0x50>
 17c:	e59f7038 	ldr	r7, [pc, #56]	; 1bc <dump_mem+0x54>
 180:	e3a04000 	mov	r4, #0
 184:	ea000004 	b	19c <dump_mem+0x34>
 188:	e4951004 	ldr	r1, [r5], #4
 18c:	e1a00007 	mov	r0, r7
 190:	ebfffffe 	bl	0 <printf>
 194:	e1560004 	cmp	r6, r4
 198:	08bd81f0 	popeq	{r4, r5, r6, r7, r8, pc}
 19c:	e3140007 	tst	r4, #7
 1a0:	e2844001 	add	r4, r4, #1
 1a4:	1afffff7 	bne	188 <dump_mem+0x20>
 1a8:	e1a01005 	mov	r1, r5
 1ac:	e1a00008 	mov	r0, r8
 1b0:	ebfffffe 	bl	0 <printf>
 1b4:	eafffff3 	b	188 <dump_mem+0x20>
 1b8:	00000008 	.word	0x00000008
 1bc:	00000010 	.word	0x00000010

000001c0 <gpio_set>:
 1c0:	e59f4044 	ldr	r4, [pc, #68]	; 20c <gpio_set+0x4c>
 1c4:	e1a0cfc0 	asr	ip, r0, #31
 1c8:	e52de004 	push	{lr}		; (str lr, [sp, #-4]!)
 1cc:	e0c54490 	smull	r4, r5, r0, r4
 1d0:	e59f4038 	ldr	r4, [pc, #56]	; 210 <gpio_set+0x50>
 1d4:	e3a0e007 	mov	lr, #7
 1d8:	e06cc145 	rsb	ip, ip, r5, asr #2
 1dc:	e1a0310c 	lsl	r3, ip, #2
 1e0:	e083c00c 	add	ip, r3, ip
 1e4:	e2833202 	add	r3, r3, #536870912	; 0x20000000
 1e8:	e040008c 	sub	r0, r0, ip, lsl #1
 1ec:	e2833602 	add	r3, r3, #2097152	; 0x200000
 1f0:	e0800080 	add	r0, r0, r0, lsl #1
 1f4:	e593c000 	ldr	ip, [r3]
 1f8:	e1ccc01e 	bic	ip, ip, lr, lsl r0
 1fc:	e18c1011 	orr	r1, ip, r1, lsl r0
 200:	e5831000 	str	r1, [r3]
 204:	e5842094 	str	r2, [r4, #148]	; 0x94
 208:	eafffffe 	b	208 <gpio_set+0x48>
 20c:	66666667 	.word	0x66666667
 210:	20200000 	.word	0x20200000

00000214 <flash_init>:
 214:	e92d4010 	push	{r4, lr}
 218:	e3a02000 	mov	r2, #0
 21c:	e3a01004 	mov	r1, #4
 220:	e3a00008 	mov	r0, #8
 224:	ebfffffe 	bl	1c0 <gpio_set>

00000228 <gpio_mode>:
 228:	e92d0030 	push	{r4, r5}
 22c:	e1a02fc0 	asr	r2, r0, #31
 230:	e59f4038 	ldr	r4, [pc, #56]	; 270 <gpio_mode+0x48>
 234:	e3a0c007 	mov	ip, #7
 238:	e0c54490 	smull	r4, r5, r0, r4
 23c:	e0622145 	rsb	r2, r2, r5, asr #2
 240:	e8bd0030 	pop	{r4, r5}
 244:	e1a03102 	lsl	r3, r2, #2
 248:	e0832002 	add	r2, r3, r2
 24c:	e2833202 	add	r3, r3, #536870912	; 0x20000000
 250:	e0400082 	sub	r0, r0, r2, lsl #1
 254:	e2833602 	add	r3, r3, #2097152	; 0x200000
 258:	e0800080 	add	r0, r0, r0, lsl #1
 25c:	e5932000 	ldr	r2, [r3]
 260:	e1c2201c 	bic	r2, r2, ip, lsl r0
 264:	e1820011 	orr	r0, r2, r1, lsl r0
 268:	e5830000 	str	r0, [r3]
 26c:	e12fff1e 	bx	lr
 270:	66666667 	.word	0x66666667

00000274 <gpio_pull>:
 274:	e59f3004 	ldr	r3, [pc, #4]	; 280 <gpio_pull+0xc>
 278:	e5831094 	str	r1, [r3, #148]	; 0x94
 27c:	eafffffe 	b	27c <gpio_pull+0x8>
 280:	20200000 	.word	0x20200000

00000284 <gpio_out>:
 284:	e3500000 	cmp	r0, #0
 288:	e59f2038 	ldr	r2, [pc, #56]	; 2c8 <gpio_out+0x44>
 28c:	e59fc038 	ldr	ip, [pc, #56]	; 2cc <gpio_out+0x48>
 290:	e280301f 	add	r3, r0, #31
 294:	a1a03000 	movge	r3, r0
 298:	e3510000 	cmp	r1, #0
 29c:	11a01002 	movne	r1, r2
 2a0:	01a0100c 	moveq	r1, ip
 2a4:	e270c000 	rsbs	ip, r0, #0
 2a8:	e20cc01f 	and	ip, ip, #31
 2ac:	e200001f 	and	r0, r0, #31
 2b0:	e3a02001 	mov	r2, #1
 2b4:	526c0000 	rsbpl	r0, ip, #0
 2b8:	e1a032c3 	asr	r3, r3, #5
 2bc:	e1a00012 	lsl	r0, r2, r0
 2c0:	e7810103 	str	r0, [r1, r3, lsl #2]
 2c4:	e12fff1e 	bx	lr
 2c8:	2020001c 	.word	0x2020001c
 2cc:	20200028 	.word	0x20200028

000002d0 <gpio_in>:
 2d0:	e3500000 	cmp	r0, #0
 2d4:	e280301f 	add	r3, r0, #31
 2d8:	a1a03000 	movge	r3, r0
 2dc:	e59f1020 	ldr	r1, [pc, #32]	; 304 <gpio_in+0x34>
 2e0:	e1a032c3 	asr	r3, r3, #5
 2e4:	e2702000 	rsbs	r2, r0, #0
 2e8:	e202201f 	and	r2, r2, #31
 2ec:	e7913103 	ldr	r3, [r1, r3, lsl #2]
 2f0:	e200001f 	and	r0, r0, #31
 2f4:	52620000 	rsbpl	r0, r2, #0
 2f8:	e1a00033 	lsr	r0, r3, r0
 2fc:	e2000001 	and	r0, r0, #1
 300:	e12fff1e 	bx	lr
 304:	20200034 	.word	0x20200034

00000308 <gpio_write>:
 308:	e3500000 	cmp	r0, #0
 30c:	e280301f 	add	r3, r0, #31
 310:	a1a03000 	movge	r3, r0
 314:	e92d4010 	push	{r4, lr}
 318:	e3e04000 	mvn	r4, #0
 31c:	e270e000 	rsbs	lr, r0, #0
 320:	e1e0c002 	mvn	ip, r2
 324:	e1a032c3 	asr	r3, r3, #5
 328:	e20ee01f 	and	lr, lr, #31
 32c:	e1cc1114 	bic	r1, ip, r4, lsl r1
 330:	e200001f 	and	r0, r0, #31
 334:	e1a03103 	lsl	r3, r3, #2
 338:	526e0000 	rsbpl	r0, lr, #0
 33c:	e2833202 	add	r3, r3, #536870912	; 0x20000000
 340:	e2833602 	add	r3, r3, #2097152	; 0x200000
 344:	e1a02012 	lsl	r2, r2, r0
 348:	e1a00011 	lsl	r0, r1, r0
 34c:	e583201c 	str	r2, [r3, #28]
 350:	e5830028 	str	r0, [r3, #40]	; 0x28
 354:	e8bd8010 	pop	{r4, pc}

00000358 <gpio_read>:
 358:	e3500000 	cmp	r0, #0
 35c:	e280201f 	add	r2, r0, #31
 360:	a1a02000 	movge	r2, r0
 364:	e52de004 	push	{lr}		; (str lr, [sp, #-4]!)
 368:	e1a022c2 	asr	r2, r2, #5
 36c:	e59fe024 	ldr	lr, [pc, #36]	; 398 <gpio_read+0x40>
 370:	e270c000 	rsbs	ip, r0, #0
 374:	e3e03000 	mvn	r3, #0
 378:	e20cc01f 	and	ip, ip, #31
 37c:	e79e2102 	ldr	r2, [lr, r2, lsl #2]
 380:	e200001f 	and	r0, r0, #31
 384:	e1e01113 	mvn	r1, r3, lsl r1
 388:	526c0000 	rsbpl	r0, ip, #0
 38c:	e0010032 	and	r0, r1, r2, lsr r0
 390:	e6ef0070 	uxtb	r0, r0
 394:	e49df004 	pop	{pc}		; (ldr pc, [sp], #4)
 398:	20200034 	.word	0x20200034

0000039c <ustime>:
 39c:	e59f3004 	ldr	r3, [pc, #4]	; 3a8 <ustime+0xc>
 3a0:	e5930004 	ldr	r0, [r3, #4]
 3a4:	e12fff1e 	bx	lr
 3a8:	20003000 	.word	0x20003000

000003ac <usdelay>:
 3ac:	e3500000 	cmp	r0, #0
 3b0:	d12fff1e 	bxle	lr
 3b4:	eafffffe 	b	3b4 <usdelay+0x8>

000003b8 <ustimeout>:
 3b8:	e59f302c 	ldr	r3, [pc, #44]	; 3ec <ustimeout+0x34>
 3bc:	e3510000 	cmp	r1, #0
 3c0:	e5933004 	ldr	r3, [r3, #4]
 3c4:	0a000003 	beq	3d8 <ustimeout+0x20>
 3c8:	e5902000 	ldr	r2, [r0]
 3cc:	e0432002 	sub	r2, r3, r2
 3d0:	e1520001 	cmp	r2, r1
 3d4:	ba000002 	blt	3e4 <ustimeout+0x2c>
 3d8:	e5803000 	str	r3, [r0]
 3dc:	e3a00001 	mov	r0, #1
 3e0:	e12fff1e 	bx	lr
 3e4:	e3a00000 	mov	r0, #0
 3e8:	e12fff1e 	bx	lr
 3ec:	20003000 	.word	0x20003000

zw_ioctl.o:     file format elf32-littlearm


Disassembly of section .text:

00000000 <ioctl_get_event>:
   0:	e92d47f0 	push	{r4, r5, r6, r7, r8, r9, sl, lr}
   4:	e3a05000 	mov	r5, #0
   8:	e5c05000 	strb	r5, [r0]
   c:	e5c05001 	strb	r5, [r0, #1]
  10:	e1a04000 	mov	r4, r0
  14:	e1a09001 	mov	r9, r1
  18:	e1a08002 	mov	r8, r2
  1c:	e3a0300c 	mov	r3, #12
  20:	e1a02000 	mov	r2, r0
  24:	e3a01902 	mov	r1, #32768	; 0x8000
  28:	e3a00002 	mov	r0, #2
  2c:	ebfffffe 	bl	0 <sdio_cmd53_read>
  30:	e1500005 	cmp	r0, r5
  34:	0a000033 	beq	108 <ioctl_get_event+0x108>
  38:	e5d40001 	ldrb	r0, [r4, #1]
  3c:	e5d42000 	ldrb	r2, [r4]
  40:	e1823400 	orr	r3, r2, r0, lsl #8
  44:	e353000c 	cmp	r3, #12
  48:	9a00002e 	bls	108 <ioctl_get_event+0x108>
  4c:	e5d4c003 	ldrb	ip, [r4, #3]
  50:	e5d41002 	ldrb	r1, [r4, #2]
  54:	e191140c 	orrs	r1, r1, ip, lsl #8
  58:	0a00002a 	beq	108 <ioctl_get_event+0x108>
  5c:	e1e01001 	mvn	r1, r1
  60:	e6ff1071 	uxth	r1, r1
  64:	e1530001 	cmp	r3, r1
  68:	1a000026 	bne	108 <ioctl_get_event+0x108>
  6c:	e243700c 	sub	r7, r3, #12
  70:	e1570008 	cmp	r7, r8
  74:	b1a06007 	movlt	r6, r7
  78:	a1a06008 	movge	r6, r8
  7c:	e1560005 	cmp	r6, r5
  80:	ca000003 	bgt	94 <ioctl_get_event+0x94>
  84:	ea000013 	b	d8 <ioctl_get_event+0xd8>
  88:	e5d42001 	ldrb	r2, [r4, #1]
  8c:	e5d43000 	ldrb	r3, [r4]
  90:	e1833402 	orr	r3, r3, r2, lsl #8
  94:	e0433005 	sub	r3, r3, r5
  98:	e0482005 	sub	r2, r8, r5
  9c:	e1530002 	cmp	r3, r2
  a0:	a1a03002 	movge	r3, r2
  a4:	e3530c01 	cmp	r3, #256	; 0x100
  a8:	a3a03c01 	movge	r3, #256	; 0x100
  ac:	e0892005 	add	r2, r9, r5
  b0:	e3a01902 	mov	r1, #32768	; 0x8000
  b4:	e0855003 	add	r5, r5, r3
  b8:	e3a00002 	mov	r0, #2
  bc:	ebfffffe 	bl	0 <sdio_cmd53_read>
  c0:	e1550006 	cmp	r5, r6
  c4:	baffffef 	blt	88 <ioctl_get_event+0x88>
  c8:	e1570005 	cmp	r7, r5
  cc:	da00000e 	ble	10c <ioctl_get_event+0x10c>
  d0:	e5d42000 	ldrb	r2, [r4]
  d4:	e5d40001 	ldrb	r0, [r4, #1]
  d8:	e1823400 	orr	r3, r2, r0, lsl #8
  dc:	e0433005 	sub	r3, r3, r5
  e0:	e3530c01 	cmp	r3, #256	; 0x100
  e4:	a3a03c01 	movge	r3, #256	; 0x100
  e8:	e0855003 	add	r5, r5, r3
  ec:	e3a02000 	mov	r2, #0
  f0:	e3a01902 	mov	r1, #32768	; 0x8000
  f4:	e3a00002 	mov	r0, #2
  f8:	ebfffffe 	bl	0 <sdio_cmd53_read>
  fc:	e1570005 	cmp	r7, r5
 100:	cafffff2 	bgt	d0 <ioctl_get_event+0xd0>
 104:	ea000000 	b	10c <ioctl_get_event+0x10c>
 108:	e0086fc8 	and	r6, r8, r8, asr #31
 10c:	e1a00006 	mov	r0, r6
 110:	e8bd87f0 	pop	{r4, r5, r6, r7, r8, r9, sl, pc}

00000114 <ioctl_evt_str>:
 114:	e59f30b8 	ldr	r3, [pc, #184]	; 1d4 <ioctl_evt_str+0xc0>
 118:	e5932000 	ldr	r2, [r3]
 11c:	e3520000 	cmp	r2, #0
 120:	0a000029 	beq	1cc <ioctl_evt_str+0xb8>
 124:	e92d4010 	push	{r4, lr}
 128:	e5d2e001 	ldrb	lr, [r2, #1]
 12c:	e5d23000 	ldrb	r3, [r2]
 130:	e5d2c002 	ldrb	ip, [r2, #2]
 134:	e5d21003 	ldrb	r1, [r2, #3]
 138:	e183340e 	orr	r3, r3, lr, lsl #8
 13c:	e183380c 	orr	r3, r3, ip, lsl #16
 140:	e1833c01 	orr	r3, r3, r1, lsl #24
 144:	e0501003 	subs	r1, r0, r3
 148:	ea000009 	b	174 <ioctl_evt_str+0x60>
 14c:	e2922008 	adds	r2, r2, #8
 150:	0a00001b 	beq	1c4 <ioctl_evt_str+0xb0>
 154:	e5d2e001 	ldrb	lr, [r2, #1]
 158:	e5d23000 	ldrb	r3, [r2]
 15c:	e5d2c002 	ldrb	ip, [r2, #2]
 160:	e5d21003 	ldrb	r1, [r2, #3]
 164:	e183340e 	orr	r3, r3, lr, lsl #8
 168:	e183380c 	orr	r3, r3, ip, lsl #16
 16c:	e1833c01 	orr	r3, r3, r1, lsl #24
 170:	e0531000 	subs	r1, r3, r0
 174:	13a01001 	movne	r1, #1
 178:	e3530000 	cmp	r3, #0
 17c:	b3a01000 	movlt	r1, #0
 180:	e3510000 	cmp	r1, #0
 184:	1afffff0 	bne	14c <ioctl_evt_str+0x38>
 188:	e3530000 	cmp	r3, #0
 18c:	ba00000c 	blt	1c4 <ioctl_evt_str+0xb0>
 190:	e5d21005 	ldrb	r1, [r2, #5]
 194:	e5d20004 	ldrb	r0, [r2, #4]
 198:	e5d23006 	ldrb	r3, [r2, #6]
 19c:	e5d24007 	ldrb	r4, [r2, #7]
 1a0:	e1800401 	orr	r0, r0, r1, lsl #8
 1a4:	e1800803 	orr	r0, r0, r3, lsl #16
 1a8:	e1804c04 	orr	r4, r0, r4, lsl #24
 1ac:	e1a00004 	mov	r0, r4
 1b0:	ebfffffe 	bl	0 <strlen>
 1b4:	e3500006 	cmp	r0, #6
 1b8:	9a000001 	bls	1c4 <ioctl_evt_str+0xb0>
 1bc:	e2840006 	add	r0, r4, #6
 1c0:	e8bd8010 	pop	{r4, pc}
 1c4:	e59f000c 	ldr	r0, [pc, #12]	; 1d8 <ioctl_evt_str+0xc4>
 1c8:	e8bd8010 	pop	{r4, pc}
 1cc:	e59f0004 	ldr	r0, [pc, #4]	; 1d8 <ioctl_evt_str+0xc4>
 1d0:	e12fff1e 	bx	lr
	...

000001dc <ioctl_evt_status_str>:
 1dc:	e350000f 	cmp	r0, #15
 1e0:	959f3008 	ldrls	r3, [pc, #8]	; 1f0 <ioctl_evt_status_str+0x14>
 1e4:	97930100 	ldrls	r0, [r3, r0, lsl #2]
 1e8:	859f0004 	ldrhi	r0, [pc, #4]	; 1f4 <ioctl_evt_status_str+0x18>
 1ec:	e12fff1e 	bx	lr
	...

000001f8 <ioctl_wait>:
 1f8:	e92d4010 	push	{r4, lr}
 1fc:	e24dd008 	sub	sp, sp, #8
 200:	e1a04000 	mov	r4, r0
 204:	e3a01000 	mov	r1, #0
 208:	e28d0004 	add	r0, sp, #4
 20c:	ebfffffe 	bl	0 <ustimeout>
 210:	e1a01004 	mov	r1, r4
 214:	e28d0004 	add	r0, sp, #4
 218:	ebfffffe 	bl	0 <ustimeout>
 21c:	e3500000 	cmp	r0, #0
 220:	e3a00025 	mov	r0, #37	; 0x25
 224:	1a000005 	bne	240 <ioctl_wait+0x48>
 228:	ebfffffe 	bl	0 <gpio_in>
 22c:	e3500000 	cmp	r0, #0
 230:	1afffff6 	bne	210 <ioctl_wait+0x18>
 234:	e3a00001 	mov	r0, #1
 238:	e28dd008 	add	sp, sp, #8
 23c:	e8bd8010 	pop	{r4, pc}
 240:	e3a00000 	mov	r0, #0
 244:	e28dd008 	add	sp, sp, #8
 248:	e8bd8010 	pop	{r4, pc}

0000024c <ioctl_cmd>:
 24c:	e59fc338 	ldr	ip, [pc, #824]	; 58c <ioctl_cmd+0x340>
 250:	e92d4ff0 	push	{r4, r5, r6, r7, r8, r9, sl, fp, lr}
 254:	e1a0a000 	mov	sl, r0
 258:	e59c0000 	ldr	r0, [ip]
 25c:	e24dd024 	sub	sp, sp, #36	; 0x24
 260:	e59f5328 	ldr	r5, [pc, #808]	; 590 <ioctl_cmd+0x344>
 264:	e1a0c000 	mov	ip, r0
 268:	e35c0000 	cmp	ip, #0
 26c:	e58d0008 	str	r0, [sp, #8]
 270:	e2850008 	add	r0, r5, #8
 274:	11a05000 	movne	r5, r0
 278:	e2510000 	subs	r0, r1, #0
 27c:	e58d0010 	str	r0, [sp, #16]
 280:	e1a04002 	mov	r4, r2
 284:	e58d3000 	str	r3, [sp]
 288:	e59db04c 	ldr	fp, [sp, #76]	; 0x4c
 28c:	0a0000b6 	beq	56c <ioctl_cmd+0x320>
 290:	ebfffffe 	bl	0 <strlen>
 294:	e2803001 	add	r3, r0, #1
 298:	e58d3004 	str	r3, [sp, #4]
 29c:	e59d3000 	ldr	r3, [sp]
 2a0:	e3530000 	cmp	r3, #0
 2a4:	e59d3004 	ldr	r3, [sp, #4]
 2a8:	1083900b 	addne	r9, r3, fp
 2ac:	1a000002 	bne	2bc <ioctl_cmd+0x70>
 2b0:	e153000b 	cmp	r3, fp
 2b4:	a1a09003 	movge	r9, r3
 2b8:	b1a0900b 	movlt	r9, fp
 2bc:	e59f82d0 	ldr	r8, [pc, #720]	; 594 <ioctl_cmd+0x348>
 2c0:	e2853018 	add	r3, r5, #24
 2c4:	e0436008 	sub	r6, r3, r8
 2c8:	e0892006 	add	r2, r9, r6
 2cc:	e2927003 	adds	r7, r2, #3
 2d0:	e58d3014 	str	r3, [sp, #20]
 2d4:	e3a03000 	mov	r3, #0
 2d8:	42827006 	addmi	r7, r2, #6
 2dc:	e1a01003 	mov	r1, r3
 2e0:	e3a02f49 	mov	r2, #292	; 0x124
 2e4:	e1a00008 	mov	r0, r8
 2e8:	e58d301c 	str	r3, [sp, #28]
 2ec:	e58d300c 	str	r3, [sp, #12]
 2f0:	ebfffffe 	bl	0 <memset>
 2f4:	e59d300c 	ldr	r3, [sp, #12]
 2f8:	e3a02f49 	mov	r2, #292	; 0x124
 2fc:	e1a01003 	mov	r1, r3
 300:	e59f0290 	ldr	r0, [pc, #656]	; 598 <ioctl_cmd+0x34c>
 304:	e6ff9079 	uxth	r9, r9
 308:	ebfffffe 	bl	0 <memset>
 30c:	e0896006 	add	r6, r9, r6
 310:	e59f0284 	ldr	r0, [pc, #644]	; 59c <ioctl_cmd+0x350>
 314:	e6ff6076 	uxth	r6, r6
 318:	e1e03006 	mvn	r3, r6
 31c:	e5d01040 	ldrb	r1, [r0, #64]	; 0x40
 320:	e59d2008 	ldr	r2, [sp, #8]
 324:	e6ff3073 	uxth	r3, r3
 328:	e3520000 	cmp	r2, #0
 32c:	e2812001 	add	r2, r1, #1
 330:	e1a0e426 	lsr	lr, r6, #8
 334:	e1a0c423 	lsr	ip, r3, #8
 338:	e3c77003 	bic	r7, r7, #3
 33c:	e5c86000 	strb	r6, [r8]
 340:	e5c8e001 	strb	lr, [r8, #1]
 344:	e5c83002 	strb	r3, [r8, #2]
 348:	e5c8c003 	strb	ip, [r8, #3]
 34c:	e6ef2072 	uxtb	r2, r2
 350:	0a000033 	beq	424 <ioctl_cmd+0x1d8>
 354:	e2466004 	sub	r6, r6, #4
 358:	e3a03014 	mov	r3, #20
 35c:	e6ff6076 	uxth	r6, r6
 360:	e5c02040 	strb	r2, [r0, #64]	; 0x40
 364:	e1a00426 	lsr	r0, r6, #8
 368:	e3a02001 	mov	r2, #1
 36c:	e5c86004 	strb	r6, [r8, #4]
 370:	e5c80005 	strb	r0, [r8, #5]
 374:	e5c82007 	strb	r2, [r8, #7]
 378:	e5c51000 	strb	r1, [r5]
 37c:	e59f621c 	ldr	r6, [pc, #540]	; 5a0 <ioctl_cmd+0x354>
 380:	e59d2000 	ldr	r2, [sp]
 384:	e5c53003 	strb	r3, [r5, #3]
 388:	e1d610b0 	ldrh	r1, [r6]
 38c:	e3520000 	cmp	r2, #0
 390:	e1a02429 	lsr	r2, r9, #8
 394:	e2813001 	add	r3, r1, #1
 398:	e5c5a008 	strb	sl, [r5, #8]
 39c:	e6ff3073 	uxth	r3, r3
 3a0:	e1a0142a 	lsr	r1, sl, #8
 3a4:	e5c5200d 	strb	r2, [r5, #13]
 3a8:	e1a0282a 	lsr	r2, sl, #16
 3ac:	e1a0ac2a 	lsr	sl, sl, #24
 3b0:	e1c630b0 	strh	r3, [r6]
 3b4:	e5c5900c 	strb	r9, [r5, #12]
 3b8:	e1a03803 	lsl	r3, r3, #16
 3bc:	e5c51009 	strb	r1, [r5, #9]
 3c0:	e5c5200a 	strb	r2, [r5, #10]
 3c4:	e5c5a00b 	strb	sl, [r5, #11]
 3c8:	0a000019 	beq	434 <ioctl_cmd+0x1e8>
 3cc:	e3833002 	orr	r3, r3, #2
 3d0:	e59d2004 	ldr	r2, [sp, #4]
 3d4:	e1a01823 	lsr	r1, r3, #16
 3d8:	e3520000 	cmp	r2, #0
 3dc:	e5c53010 	strb	r3, [r5, #16]
 3e0:	e1a02c23 	lsr	r2, r3, #24
 3e4:	e3a03000 	mov	r3, #0
 3e8:	e5c51012 	strb	r1, [r5, #18]
 3ec:	e5c52013 	strb	r2, [r5, #19]
 3f0:	e5c53011 	strb	r3, [r5, #17]
 3f4:	0a000003 	beq	408 <ioctl_cmd+0x1bc>
 3f8:	e59d1010 	ldr	r1, [sp, #16]
 3fc:	e59d0014 	ldr	r0, [sp, #20]
 400:	e59d2004 	ldr	r2, [sp, #4]
 404:	ebfffffe 	bl	0 <memcpy>
 408:	e59d3004 	ldr	r3, [sp, #4]
 40c:	e1a0200b 	mov	r2, fp
 410:	e2830018 	add	r0, r3, #24
 414:	e0850000 	add	r0, r5, r0
 418:	e59d1048 	ldr	r1, [sp, #72]	; 0x48
 41c:	ebfffffe 	bl	0 <memcpy>
 420:	ea00000e 	b	460 <ioctl_cmd+0x214>
 424:	e5c02040 	strb	r2, [r0, #64]	; 0x40
 428:	e5c51000 	strb	r1, [r5]
 42c:	e3a0300c 	mov	r3, #12
 430:	eaffffd1 	b	37c <ioctl_cmd+0x130>
 434:	e59d2004 	ldr	r2, [sp, #4]
 438:	e3a01000 	mov	r1, #0
 43c:	e3520000 	cmp	r2, #0
 440:	e6ef2073 	uxtb	r2, r3
 444:	e5c52010 	strb	r2, [r5, #16]
 448:	e1a02823 	lsr	r2, r3, #16
 44c:	e1a03c23 	lsr	r3, r3, #24
 450:	e5c51011 	strb	r1, [r5, #17]
 454:	e5c52012 	strb	r2, [r5, #18]
 458:	e5c53013 	strb	r3, [r5, #19]
 45c:	1a000045 	bne	578 <ioctl_cmd+0x32c>
 460:	e1a03007 	mov	r3, r7
 464:	e59f2128 	ldr	r2, [pc, #296]	; 594 <ioctl_cmd+0x348>
 468:	e3a01902 	mov	r1, #32768	; 0x8000
 46c:	e3a00002 	mov	r0, #2
 470:	ebfffffe 	bl	0 <sdio_cmd53_write>
 474:	e3a00e7d 	mov	r0, #2000	; 0x7d0
 478:	ebfffffe 	bl	1f8 <ioctl_wait>
 47c:	e59f5114 	ldr	r5, [pc, #276]	; 598 <ioctl_cmd+0x34c>
 480:	e59f811c 	ldr	r8, [pc, #284]	; 5a4 <ioctl_cmd+0x358>
 484:	e285901c 	add	r9, r5, #28
 488:	e3a0a000 	mov	sl, #0
 48c:	e3540000 	cmp	r4, #0
 490:	a35a0000 	cmpge	sl, #0
 494:	e28d101c 	add	r1, sp, #28
 498:	e1a00008 	mov	r0, r8
 49c:	1a00002f 	bne	560 <ioctl_cmd+0x314>
 4a0:	ebfffffe 	bl	0 <sdio_bak_read32>
 4a4:	e59da01c 	ldr	sl, [sp, #28]
 4a8:	e1a00008 	mov	r0, r8
 4ac:	e1a0100a 	mov	r1, sl
 4b0:	e21aa0ff 	ands	sl, sl, #255	; 0xff
 4b4:	e2444002 	sub	r4, r4, #2
 4b8:	0a000024 	beq	550 <ioctl_cmd+0x304>
 4bc:	ebfffffe 	bl	0 <sdio_bak_write32>
 4c0:	e1a03007 	mov	r3, r7
 4c4:	e59f20cc 	ldr	r2, [pc, #204]	; 598 <ioctl_cmd+0x34c>
 4c8:	e3a01902 	mov	r1, #32768	; 0x8000
 4cc:	e3a00002 	mov	r0, #2
 4d0:	ebfffffe 	bl	0 <sdio_cmd53_read>
 4d4:	e5d52015 	ldrb	r2, [r5, #21]
 4d8:	e5d53014 	ldrb	r3, [r5, #20]
 4dc:	e5d5c016 	ldrb	ip, [r5, #22]
 4e0:	e5d51017 	ldrb	r1, [r5, #23]
 4e4:	e1833402 	orr	r3, r3, r2, lsl #8
 4e8:	e1d620b0 	ldrh	r2, [r6]
 4ec:	e183380c 	orr	r3, r3, ip, lsl #16
 4f0:	e1833c01 	orr	r3, r3, r1, lsl #24
 4f4:	e1520823 	cmp	r2, r3, lsr #16
 4f8:	03a02001 	moveq	r2, #1
 4fc:	13a02000 	movne	r2, #0
 500:	e3500000 	cmp	r0, #0
 504:	03a02000 	moveq	r2, #0
 508:	e3520000 	cmp	r2, #0
 50c:	e1a0a000 	mov	sl, r0
 510:	01a0a002 	moveq	sl, r2
 514:	0affffdc 	beq	48c <ioctl_cmd+0x240>
 518:	e3130001 	tst	r3, #1
 51c:	1a00000e 	bne	55c <ioctl_cmd+0x310>
 520:	e59d3000 	ldr	r3, [sp]
 524:	e3530000 	cmp	r3, #0
 528:	1affffd7 	bne	48c <ioctl_cmd+0x240>
 52c:	e59d3048 	ldr	r3, [sp, #72]	; 0x48
 530:	e3530000 	cmp	r3, #0
 534:	135b0000 	cmpne	fp, #0
 538:	0affffd3 	beq	48c <ioctl_cmd+0x240>
 53c:	e1a0200b 	mov	r2, fp
 540:	e1a01009 	mov	r1, r9
 544:	e1a00003 	mov	r0, r3
 548:	ebfffffe 	bl	0 <memcpy>
 54c:	eaffffce 	b	48c <ioctl_cmd+0x240>
 550:	e3a00e7d 	mov	r0, #2000	; 0x7d0
 554:	ebfffffe 	bl	0 <usdelay>
 558:	eaffffcb 	b	48c <ioctl_cmd+0x240>
 55c:	e3a0a000 	mov	sl, #0
 560:	e1a0000a 	mov	r0, sl
 564:	e28dd024 	add	sp, sp, #36	; 0x24
 568:	e8bd8ff0 	pop	{r4, r5, r6, r7, r8, r9, sl, fp, pc}
 56c:	e59d3010 	ldr	r3, [sp, #16]
 570:	e58d3004 	str	r3, [sp, #4]
 574:	eaffff48 	b	29c <ioctl_cmd+0x50>
 578:	e59d2004 	ldr	r2, [sp, #4]
 57c:	e59d1010 	ldr	r1, [sp, #16]
 580:	e59d0014 	ldr	r0, [sp, #20]
 584:	ebfffffe 	bl	0 <memcpy>
 588:	eaffffb4 	b	460 <ioctl_cmd+0x214>
 58c:	00000000 	.word	0x00000000
 590:	00000004 	.word	0x00000004
	...
 5a4:	18002020 	.word	0x18002020

000005a8 <ioctl_get_data>:
 5a8:	e52de004 	push	{lr}		; (str lr, [sp, #-4]!)
 5ac:	e24dd00c 	sub	sp, sp, #12
 5b0:	e1cd20f0 	strd	r2, [sp]
 5b4:	e1a02001 	mov	r2, r1
 5b8:	e3a03000 	mov	r3, #0
 5bc:	e1a01000 	mov	r1, r0
 5c0:	e59f0008 	ldr	r0, [pc, #8]	; 5d0 <ioctl_get_data+0x28>
 5c4:	ebfffffe 	bl	24c <ioctl_cmd>
 5c8:	e28dd00c 	add	sp, sp, #12
 5cc:	e49df004 	pop	{pc}		; (ldr pc, [sp], #4)
 5d0:	00000106 	.word	0x00000106

000005d4 <ioctl_set_data>:
 5d4:	e52de004 	push	{lr}		; (str lr, [sp, #-4]!)
 5d8:	e24dd00c 	sub	sp, sp, #12
 5dc:	e1cd20f0 	strd	r2, [sp]
 5e0:	e1a02001 	mov	r2, r1
 5e4:	e3a03001 	mov	r3, #1
 5e8:	e1a01000 	mov	r1, r0
 5ec:	e59f0008 	ldr	r0, [pc, #8]	; 5fc <ioctl_set_data+0x28>
 5f0:	ebfffffe 	bl	24c <ioctl_cmd>
 5f4:	e28dd00c 	add	sp, sp, #12
 5f8:	e49df004 	pop	{pc}		; (ldr pc, [sp], #4)
 5fc:	00000107 	.word	0x00000107

00000600 <ioctl_enable_evts>:
 600:	e59f10a8 	ldr	r1, [pc, #168]	; 6b0 <ioctl_enable_evts+0xb0>
 604:	e3a03000 	mov	r3, #0
 608:	e92d4010 	push	{r4, lr}
 60c:	e24dd008 	sub	sp, sp, #8
 610:	e5813000 	str	r3, [r1]
 614:	e5813004 	str	r3, [r1, #4]
 618:	e5813008 	str	r3, [r1, #8]
 61c:	e581300c 	str	r3, [r1, #12]
 620:	e5813010 	str	r3, [r1, #16]
 624:	e5813014 	str	r3, [r1, #20]
 628:	e1c131b8 	strh	r3, [r1, #24]
 62c:	e5d04001 	ldrb	r4, [r0, #1]
 630:	e5d03000 	ldrb	r3, [r0]
 634:	e5d0e002 	ldrb	lr, [r0, #2]
 638:	e5d02003 	ldrb	r2, [r0, #3]
 63c:	e59fc070 	ldr	ip, [pc, #112]	; 6b4 <ioctl_enable_evts+0xb4>
 640:	e1833404 	orr	r3, r3, r4, lsl #8
 644:	e183380e 	orr	r3, r3, lr, lsl #16
 648:	e1933c02 	orrs	r3, r3, r2, lsl #24
 64c:	e58c0000 	str	r0, [ip]
 650:	4a00000d 	bmi	68c <ioctl_enable_evts+0x8c>
 654:	e3a04001 	mov	r4, #1
 658:	e35300cf 	cmp	r3, #207	; 0xcf
 65c:	e203c007 	and	ip, r3, #7
 660:	d7d121c3 	ldrble	r2, [r1, r3, asr #3]
 664:	d1822c14 	orrle	r2, r2, r4, lsl ip
 668:	d7c121c3 	strble	r2, [r1, r3, asr #3]
 66c:	e5f03008 	ldrb	r3, [r0, #8]!
 670:	e5d0e001 	ldrb	lr, [r0, #1]
 674:	e5d0c002 	ldrb	ip, [r0, #2]
 678:	e5d02003 	ldrb	r2, [r0, #3]
 67c:	e183340e 	orr	r3, r3, lr, lsl #8
 680:	e183380c 	orr	r3, r3, ip, lsl #16
 684:	e1933c02 	orrs	r3, r3, r2, lsl #24
 688:	5afffff2 	bpl	658 <ioctl_enable_evts+0x58>
 68c:	e3a0301a 	mov	r3, #26
 690:	e3a02000 	mov	r2, #0
 694:	e88d000a 	stm	sp, {r1, r3}
 698:	e59f0018 	ldr	r0, [pc, #24]	; 6b8 <ioctl_enable_evts+0xb8>
 69c:	e3a03001 	mov	r3, #1
 6a0:	e59f1014 	ldr	r1, [pc, #20]	; 6bc <ioctl_enable_evts+0xbc>
 6a4:	ebfffffe 	bl	24c <ioctl_cmd>
 6a8:	e28dd008 	add	sp, sp, #8
 6ac:	e8bd8010 	pop	{r4, pc}
	...
 6b8:	00000107 	.word	0x00000107
 6bc:	00000004 	.word	0x00000004

000006c0 <ioctl_set_uint32>:
 6c0:	e52de004 	push	{lr}		; (str lr, [sp, #-4]!)
 6c4:	e24dd014 	sub	sp, sp, #20
 6c8:	e28d3010 	add	r3, sp, #16
 6cc:	e3a0c004 	mov	ip, #4
 6d0:	e5232004 	str	r2, [r3, #-4]!
 6d4:	e1a02001 	mov	r2, r1
 6d8:	e88d1008 	stm	sp, {r3, ip}
 6dc:	e1a01000 	mov	r1, r0
 6e0:	e3a03001 	mov	r3, #1
 6e4:	e59f0008 	ldr	r0, [pc, #8]	; 6f4 <ioctl_set_uint32+0x34>
 6e8:	ebfffffe 	bl	24c <ioctl_cmd>
 6ec:	e28dd014 	add	sp, sp, #20
 6f0:	e49df004 	pop	{pc}		; (ldr pc, [sp], #4)
 6f4:	00000107 	.word	0x00000107

000006f8 <ioctl_set_intx2>:
 6f8:	e52de004 	push	{lr}		; (str lr, [sp, #-4]!)
 6fc:	e3a0e008 	mov	lr, #8
 700:	e24dd014 	sub	sp, sp, #20
 704:	e08dc00e 	add	ip, sp, lr
 708:	e1cd20f8 	strd	r2, [sp, #8]
 70c:	e58de004 	str	lr, [sp, #4]
 710:	e1a02001 	mov	r2, r1
 714:	e58dc000 	str	ip, [sp]
 718:	e1a01000 	mov	r1, r0
 71c:	e3a03001 	mov	r3, #1
 720:	e59f0008 	ldr	r0, [pc, #8]	; 730 <ioctl_set_intx2+0x38>
 724:	ebfffffe 	bl	24c <ioctl_cmd>
 728:	e28dd014 	add	sp, sp, #20
 72c:	e49df004 	pop	{pc}		; (ldr pc, [sp], #4)
 730:	00000107 	.word	0x00000107

00000734 <ioctl_wr_int32>:
 734:	e52de004 	push	{lr}		; (str lr, [sp, #-4]!)
 738:	e24dd014 	sub	sp, sp, #20
 73c:	e28d3010 	add	r3, sp, #16
 740:	e3a0c004 	mov	ip, #4
 744:	e5232004 	str	r2, [r3, #-4]!
 748:	e1a02001 	mov	r2, r1
 74c:	e88d1008 	stm	sp, {r3, ip}
 750:	e3a01000 	mov	r1, #0
 754:	e3a03001 	mov	r3, #1
 758:	ebfffffe 	bl	24c <ioctl_cmd>
 75c:	e28dd014 	add	sp, sp, #20
 760:	e49df004 	pop	{pc}		; (ldr pc, [sp], #4)

00000764 <ioctl_wr_data>:
 764:	e52de004 	push	{lr}		; (str lr, [sp, #-4]!)
 768:	e24dd00c 	sub	sp, sp, #12
 76c:	e1cd20f0 	strd	r2, [sp]
 770:	e1a02001 	mov	r2, r1
 774:	e3a03001 	mov	r3, #1
 778:	e3a01000 	mov	r1, #0
 77c:	ebfffffe 	bl	24c <ioctl_cmd>
 780:	e28dd00c 	add	sp, sp, #12
 784:	e49df004 	pop	{pc}		; (ldr pc, [sp], #4)

00000788 <ioctl_rd_data>:
 788:	e52de004 	push	{lr}		; (str lr, [sp, #-4]!)
 78c:	e24dd00c 	sub	sp, sp, #12
 790:	e58d3004 	str	r3, [sp, #4]
 794:	e3a03000 	mov	r3, #0
 798:	e58d2000 	str	r2, [sp]
 79c:	e1a02001 	mov	r2, r1
 7a0:	e1a01003 	mov	r1, r3
 7a4:	ebfffffe 	bl	24c <ioctl_cmd>
 7a8:	e28dd00c 	add	sp, sp, #12
 7ac:	e49df004 	pop	{pc}		; (ldr pc, [sp], #4)

000007b0 <ioctl_ready>:
 7b0:	e92d4010 	push	{r4, lr}
 7b4:	e3a00025 	mov	r0, #37	; 0x25
 7b8:	ebfffffe 	bl	0 <gpio_in>
 7bc:	e16f0f10 	clz	r0, r0
 7c0:	e1a002a0 	lsr	r0, r0, #5
 7c4:	e8bd8010 	pop	{r4, pc}

000007c8 <disp_fields>:
 7c8:	e92d4ff8 	push	{r3, r4, r5, r6, r7, r8, r9, sl, fp, lr}
 7cc:	e1a09001 	mov	r9, r1
 7d0:	e5d1b000 	ldrb	fp, [r1]
 7d4:	e59f7120 	ldr	r7, [pc, #288]	; 8fc <disp_fields+0x134>
 7d8:	e59f8120 	ldr	r8, [pc, #288]	; 900 <disp_fields+0x138>
 7dc:	e1a05000 	mov	r5, r0
 7e0:	e1a06002 	mov	r6, r2
 7e4:	e1a0a000 	mov	sl, r0
 7e8:	e35b0000 	cmp	fp, #0
 7ec:	08bd8ff8 	popeq	{r3, r4, r5, r6, r7, r8, r9, sl, fp, pc}
 7f0:	e04a3005 	sub	r3, sl, r5
 7f4:	e1530006 	cmp	r3, r6
 7f8:	a8bd8ff8 	popge	{r3, r4, r5, r6, r7, r8, r9, sl, fp, pc}
 7fc:	e24b3030 	sub	r3, fp, #48	; 0x30
 800:	e3a04000 	mov	r4, #0
 804:	e6ef3073 	uxtb	r3, r3
 808:	e3530009 	cmp	r3, #9
 80c:	8a000006 	bhi	82c <disp_fields+0x64>
 810:	e0844104 	add	r4, r4, r4, lsl #2
 814:	e08b4084 	add	r4, fp, r4, lsl #1
 818:	e5f9b001 	ldrb	fp, [r9, #1]!
 81c:	e2444030 	sub	r4, r4, #48	; 0x30
 820:	e24b3030 	sub	r3, fp, #48	; 0x30
 824:	e3530009 	cmp	r3, #9
 828:	9afffff8 	bls	810 <disp_fields+0x48>
 82c:	e5d90001 	ldrb	r0, [r9, #1]
 830:	e2899001 	add	r9, r9, #1
 834:	e3500020 	cmp	r0, #32
 838:	908aa004 	addls	sl, sl, r4
 83c:	8a00000a 	bhi	86c <disp_fields+0xa4>
 840:	e3500020 	cmp	r0, #32
 844:	11a0b000 	movne	fp, r0
 848:	1affffe6 	bne	7e8 <disp_fields+0x20>
 84c:	e5f9b001 	ldrb	fp, [r9, #1]!
 850:	e35b0020 	cmp	fp, #32
 854:	0afffffc 	beq	84c <disp_fields+0x84>
 858:	e35b0000 	cmp	fp, #0
 85c:	1affffe3 	bne	7f0 <disp_fields+0x28>
 860:	e8bd8ff8 	pop	{r3, r4, r5, r6, r7, r8, r9, sl, fp, pc}
 864:	ebfffffe 	bl	0 <putchar>
 868:	e5f90001 	ldrb	r0, [r9, #1]!
 86c:	e350002f 	cmp	r0, #47	; 0x2f
 870:	8afffffb 	bhi	864 <disp_fields+0x9c>
 874:	e3a0003d 	mov	r0, #61	; 0x3d
 878:	ebfffffe 	bl	0 <putchar>
 87c:	e3540004 	cmp	r4, #4
 880:	ca000013 	bgt	8d4 <disp_fields+0x10c>
 884:	e3540000 	cmp	r4, #0
 888:	0a00000c 	beq	8c0 <disp_fields+0xf8>
 88c:	e1a00184 	lsl	r0, r4, #3
 890:	e08ac004 	add	ip, sl, r4
 894:	e3a04000 	mov	r4, #0
 898:	e2400008 	sub	r0, r0, #8
 89c:	e1a03004 	mov	r3, r4
 8a0:	e4da2001 	ldrb	r2, [sl], #1
 8a4:	e35b003a 	cmp	fp, #58	; 0x3a
 8a8:	10401003 	subne	r1, r0, r3
 8ac:	01a01003 	moveq	r1, r3
 8b0:	e15c000a 	cmp	ip, sl
 8b4:	e2833008 	add	r3, r3, #8
 8b8:	e1844112 	orr	r4, r4, r2, lsl r1
 8bc:	1afffff7 	bne	8a0 <disp_fields+0xd8>
 8c0:	e1a01004 	mov	r1, r4
 8c4:	e1a00008 	mov	r0, r8
 8c8:	ebfffffe 	bl	0 <printf>
 8cc:	e5d90000 	ldrb	r0, [r9]
 8d0:	eaffffda 	b	840 <disp_fields+0x78>
 8d4:	e08a4004 	add	r4, sl, r4
 8d8:	e4da1001 	ldrb	r1, [sl], #1
 8dc:	e1a00007 	mov	r0, r7
 8e0:	ebfffffe 	bl	0 <printf>
 8e4:	e15a0004 	cmp	sl, r4
 8e8:	1afffffa 	bne	8d8 <disp_fields+0x110>
 8ec:	e3a00020 	mov	r0, #32
 8f0:	ebfffffe 	bl	0 <putchar>
 8f4:	e5d90000 	ldrb	r0, [r9]
 8f8:	eaffffd0 	b	840 <disp_fields+0x78>
 8fc:	00000018 	.word	0x00000018
 900:	00000010 	.word	0x00000010

zw_sdio.o:     file format elf32-littlearm


Disassembly of section .text:

00000000 <log_msg.part.2>:
       0:	e92d40f0 	push	{r4, r5, r6, r7, lr}
       4:	e59fe070 	ldr	lr, [pc, #112]	; 7c <log_msg.part.2+0x7c>
       8:	e59f4070 	ldr	r4, [pc, #112]	; 80 <log_msg.part.2+0x80>
       c:	e59f2070 	ldr	r2, [pc, #112]	; 84 <log_msg.part.2+0x84>
      10:	e59ec000 	ldr	ip, [lr]
      14:	e5903000 	ldr	r3, [r0]
      18:	e28c1001 	add	r1, ip, #1
      1c:	e782318c 	str	r3, [r2, ip, lsl #3]
      20:	e0c76491 	smull	r6, r7, r1, r4
      24:	e1d050b4 	ldrh	r5, [r0, #4]
      28:	e1a03fc1 	asr	r3, r1, #31
      2c:	e0633247 	rsb	r3, r3, r7, asr #4
      30:	e59f0050 	ldr	r0, [pc, #80]	; 88 <log_msg.part.2+0x88>
      34:	e0833103 	add	r3, r3, r3, lsl #2
      38:	e082218c 	add	r2, r2, ip, lsl #3
      3c:	e0833103 	add	r3, r3, r3, lsl #2
      40:	e1c250b4 	strh	r5, [r2, #4]
      44:	e0413083 	sub	r3, r1, r3, lsl #1
      48:	e5901000 	ldr	r1, [r0]
      4c:	e58e3000 	str	r3, [lr]
      50:	e1530001 	cmp	r3, r1
      54:	18bd80f0 	popne	{r4, r5, r6, r7, pc}
      58:	e2833001 	add	r3, r3, #1
      5c:	e0c54493 	smull	r4, r5, r3, r4
      60:	e1a02fc3 	asr	r2, r3, #31
      64:	e0622245 	rsb	r2, r2, r5, asr #4
      68:	e0822102 	add	r2, r2, r2, lsl #2
      6c:	e0822102 	add	r2, r2, r2, lsl #2
      70:	e0433082 	sub	r3, r3, r2, lsl #1
      74:	e5803000 	str	r3, [r0]
      78:	e8bd80f0 	pop	{r4, r5, r6, r7, pc}
      7c:	00000000 	.word	0x00000000
      80:	51eb851f 	.word	0x51eb851f
	...

0000008c <log_data_ack.part.3>:
      8c:	e92d40f0 	push	{r4, r5, r6, r7, lr}
      90:	e3e03001 	mvn	r3, #1
      94:	e59f7068 	ldr	r7, [pc, #104]	; 104 <log_data_ack.part.3+0x78>
      98:	e59f6068 	ldr	r6, [pc, #104]	; 108 <log_data_ack.part.3+0x7c>
      9c:	e59f2068 	ldr	r2, [pc, #104]	; 10c <log_data_ack.part.3+0x80>
      a0:	e597c000 	ldr	ip, [r7]
      a4:	e59fe064 	ldr	lr, [pc, #100]	; 110 <log_data_ack.part.3+0x84>
      a8:	e28c1001 	add	r1, ip, #1
      ac:	e7c2318c 	strb	r3, [r2, ip, lsl #3]
      b0:	e0c54691 	smull	r4, r5, r1, r6
      b4:	e1a03fc1 	asr	r3, r1, #31
      b8:	e0633245 	rsb	r3, r3, r5, asr #4
      bc:	e082218c 	add	r2, r2, ip, lsl #3
      c0:	e0833103 	add	r3, r3, r3, lsl #2
      c4:	e5c20001 	strb	r0, [r2, #1]
      c8:	e0833103 	add	r3, r3, r3, lsl #2
      cc:	e59e2000 	ldr	r2, [lr]
      d0:	e0413083 	sub	r3, r1, r3, lsl #1
      d4:	e1530002 	cmp	r3, r2
      d8:	e5873000 	str	r3, [r7]
      dc:	18bd80f0 	popne	{r4, r5, r6, r7, pc}
      e0:	e2833001 	add	r3, r3, #1
      e4:	e0c76693 	smull	r6, r7, r3, r6
      e8:	e1a02fc3 	asr	r2, r3, #31
      ec:	e0622247 	rsb	r2, r2, r7, asr #4
      f0:	e0822102 	add	r2, r2, r2, lsl #2
      f4:	e0822102 	add	r2, r2, r2, lsl #2
      f8:	e0433082 	sub	r3, r3, r2, lsl #1
      fc:	e58e3000 	str	r3, [lr]
     100:	e8bd80f0 	pop	{r4, r5, r6, r7, pc}
     104:	00000000 	.word	0x00000000
     108:	51eb851f 	.word	0x51eb851f
	...

00000114 <sdio_cmd_write>:
     114:	e92d41f0 	push	{r4, r5, r6, r7, r8, lr}
     118:	e1a07001 	mov	r7, r1
     11c:	e1a06000 	mov	r6, r0
     120:	e3a01001 	mov	r1, #1
     124:	e3a00023 	mov	r0, #35	; 0x23
     128:	ebfffffe 	bl	0 <gpio_mode>
     12c:	e3570000 	cmp	r7, #0
     130:	da000016 	ble	190 <sdio_cmd_write+0x7c>
     134:	e3a04000 	mov	r4, #0
     138:	e3140007 	tst	r4, #7
     13c:	e3a00023 	mov	r0, #35	; 0x23
     140:	05d65000 	ldrbeq	r5, [r6]
     144:	02866001 	addeq	r6, r6, #1
     148:	e2844001 	add	r4, r4, #1
     14c:	e2051080 	and	r1, r5, #128	; 0x80
     150:	ebfffffe 	bl	0 <gpio_out>
     154:	e3a00001 	mov	r0, #1
     158:	ebfffffe 	bl	0 <usdelay>
     15c:	e3a01001 	mov	r1, #1
     160:	e3a00022 	mov	r0, #34	; 0x22
     164:	ebfffffe 	bl	0 <gpio_out>
     168:	e3a00001 	mov	r0, #1
     16c:	ebfffffe 	bl	0 <usdelay>
     170:	e1a05085 	lsl	r5, r5, #1
     174:	e3a01000 	mov	r1, #0
     178:	e3a00022 	mov	r0, #34	; 0x22
     17c:	e6ef4074 	uxtb	r4, r4
     180:	ebfffffe 	bl	0 <gpio_out>
     184:	e1540007 	cmp	r4, r7
     188:	e6ef5075 	uxtb	r5, r5
     18c:	baffffe9 	blt	138 <sdio_cmd_write+0x24>
     190:	e3a01000 	mov	r1, #0
     194:	e3a00023 	mov	r0, #35	; 0x23
     198:	e8bd41f0 	pop	{r4, r5, r6, r7, r8, lr}
     19c:	eafffffe 	b	0 <gpio_mode>

000001a0 <sdio_rsp_read>:
     1a0:	e92d41f0 	push	{r4, r5, r6, r7, r8, lr}
     1a4:	e3a04000 	mov	r4, #0
     1a8:	e5c04000 	strb	r4, [r0]
     1ac:	e1a05000 	mov	r5, r0
     1b0:	e3a00001 	mov	r0, #1
     1b4:	e1a06002 	mov	r6, r2
     1b8:	e1a07001 	mov	r7, r1
     1bc:	ebfffffe 	bl	0 <usdelay>
     1c0:	e3a01001 	mov	r1, #1
     1c4:	e3a00022 	mov	r0, #34	; 0x22
     1c8:	ebfffffe 	bl	0 <gpio_out>
     1cc:	e1a00006 	mov	r0, r6
     1d0:	ebfffffe 	bl	0 <gpio_in>
     1d4:	e1a08000 	mov	r8, r0
     1d8:	e3a00001 	mov	r0, #1
     1dc:	ebfffffe 	bl	0 <usdelay>
     1e0:	e1a01004 	mov	r1, r4
     1e4:	e3a00022 	mov	r0, #34	; 0x22
     1e8:	ebfffffe 	bl	0 <gpio_out>
     1ec:	e3a04013 	mov	r4, #19
     1f0:	ea00000e 	b	230 <sdio_rsp_read+0x90>
     1f4:	ebfffffe 	bl	0 <usdelay>
     1f8:	e3a01001 	mov	r1, #1
     1fc:	e3a00022 	mov	r0, #34	; 0x22
     200:	ebfffffe 	bl	0 <gpio_out>
     204:	e1a00006 	mov	r0, r6
     208:	ebfffffe 	bl	0 <gpio_in>
     20c:	e1a08000 	mov	r8, r0
     210:	e3a00001 	mov	r0, #1
     214:	ebfffffe 	bl	0 <usdelay>
     218:	e3a00022 	mov	r0, #34	; 0x22
     21c:	e3a01000 	mov	r1, #0
     220:	ebfffffe 	bl	0 <gpio_out>
     224:	e2440001 	sub	r0, r4, #1
     228:	e21040ff 	ands	r4, r0, #255	; 0xff
     22c:	0a00001f 	beq	2b0 <sdio_rsp_read+0x110>
     230:	e3580000 	cmp	r8, #0
     234:	e3a00001 	mov	r0, #1
     238:	1affffed 	bne	1f4 <sdio_rsp_read+0x54>
     23c:	e3570001 	cmp	r7, #1
     240:	c3a08001 	movgt	r8, #1
     244:	da00001d 	ble	2c0 <sdio_rsp_read+0x120>
     248:	e3a00001 	mov	r0, #1
     24c:	ebfffffe 	bl	0 <usdelay>
     250:	e3a01001 	mov	r1, #1
     254:	e3a00022 	mov	r0, #34	; 0x22
     258:	ebfffffe 	bl	0 <gpio_out>
     25c:	e1a00006 	mov	r0, r6
     260:	e5d54000 	ldrb	r4, [r5]
     264:	ebfffffe 	bl	0 <gpio_in>
     268:	e2888001 	add	r8, r8, #1
     26c:	e1a04084 	lsl	r4, r4, #1
     270:	e6ef8078 	uxtb	r8, r8
     274:	e6af4074 	sxtb	r4, r4
     278:	e1840000 	orr	r0, r4, r0
     27c:	e5c50000 	strb	r0, [r5]
     280:	e3a00001 	mov	r0, #1
     284:	ebfffffe 	bl	0 <usdelay>
     288:	e3a00022 	mov	r0, #34	; 0x22
     28c:	e3a01000 	mov	r1, #0
     290:	ebfffffe 	bl	0 <gpio_out>
     294:	e1580007 	cmp	r8, r7
     298:	e1a00008 	mov	r0, r8
     29c:	a8bd81f0 	popge	{r4, r5, r6, r7, r8, pc}
     2a0:	e2183007 	ands	r3, r8, #7
     2a4:	05c53001 	strbeq	r3, [r5, #1]
     2a8:	02855001 	addeq	r5, r5, #1
     2ac:	eaffffe5 	b	248 <sdio_rsp_read+0xa8>
     2b0:	e3580000 	cmp	r8, #0
     2b4:	0affffe0 	beq	23c <sdio_rsp_read+0x9c>
     2b8:	e1a00004 	mov	r0, r4
     2bc:	e8bd81f0 	pop	{r4, r5, r6, r7, r8, pc}
     2c0:	e3a00001 	mov	r0, #1
     2c4:	e8bd81f0 	pop	{r4, r5, r6, r7, r8, pc}

000002c8 <sdio_rsp_block_read>:
     2c8:	e92d4ff0 	push	{r4, r5, r6, r7, r8, r9, sl, fp, lr}
     2cc:	e251b000 	subs	fp, r1, #0
     2d0:	e24dd00c 	sub	sp, sp, #12
     2d4:	e3a01000 	mov	r1, #0
     2d8:	e5c01000 	strb	r1, [r0]
     2dc:	e1a09000 	mov	r9, r0
     2e0:	15cb1000 	strbne	r1, [fp]
     2e4:	e3a00001 	mov	r0, #1
     2e8:	e1cd20f0 	strd	r2, [sp]
     2ec:	ebfffffe 	bl	0 <usdelay>
     2f0:	e3a01001 	mov	r1, #1
     2f4:	e3a00022 	mov	r0, #34	; 0x22
     2f8:	ebfffffe 	bl	0 <gpio_out>
     2fc:	e3a00023 	mov	r0, #35	; 0x23
     300:	ebfffffe 	bl	0 <gpio_in>
     304:	e3a04013 	mov	r4, #19
     308:	e1a05000 	mov	r5, r0
     30c:	e3a00001 	mov	r0, #1
     310:	ebfffffe 	bl	0 <usdelay>
     314:	e3a01000 	mov	r1, #0
     318:	e3a00022 	mov	r0, #34	; 0x22
     31c:	ebfffffe 	bl	0 <gpio_out>
     320:	ea00000d 	b	35c <sdio_rsp_block_read+0x94>
     324:	ebfffffe 	bl	0 <usdelay>
     328:	e3a01001 	mov	r1, #1
     32c:	e3a00022 	mov	r0, #34	; 0x22
     330:	ebfffffe 	bl	0 <gpio_out>
     334:	e3a00023 	mov	r0, #35	; 0x23
     338:	ebfffffe 	bl	0 <gpio_in>
     33c:	e1a05000 	mov	r5, r0
     340:	e3a00001 	mov	r0, #1
     344:	ebfffffe 	bl	0 <usdelay>
     348:	e3a01000 	mov	r1, #0
     34c:	e3a00022 	mov	r0, #34	; 0x22
     350:	ebfffffe 	bl	0 <gpio_out>
     354:	e2544001 	subs	r4, r4, #1
     358:	0a00005d 	beq	4d4 <sdio_rsp_block_read+0x20c>
     35c:	e3550000 	cmp	r5, #0
     360:	e3a00001 	mov	r0, #1
     364:	1affffee 	bne	324 <sdio_rsp_block_read+0x5c>
     368:	e3a08000 	mov	r8, #0
     36c:	e1a04008 	mov	r4, r8
     370:	e3a06000 	mov	r6, #0
     374:	e3a07000 	mov	r7, #0
     378:	e3a05001 	mov	r5, #1
     37c:	e3a00001 	mov	r0, #1
     380:	ebfffffe 	bl	0 <usdelay>
     384:	e3a01001 	mov	r1, #1
     388:	e3a00022 	mov	r0, #34	; 0x22
     38c:	ebfffffe 	bl	0 <gpio_out>
     390:	e355002f 	cmp	r5, #47	; 0x2f
     394:	ca00000a 	bgt	3c4 <sdio_rsp_block_read+0xfc>
     398:	e215a007 	ands	sl, r5, #7
     39c:	05c9a001 	strbeq	sl, [r9, #1]
     3a0:	15d9a000 	ldrbne	sl, [r9]
     3a4:	e3a00023 	mov	r0, #35	; 0x23
     3a8:	02899001 	addeq	r9, r9, #1
     3ac:	e2855001 	add	r5, r5, #1
     3b0:	11a0a08a 	lslne	sl, sl, #1
     3b4:	16afa07a 	sxtbne	sl, sl
     3b8:	ebfffffe 	bl	0 <gpio_in>
     3bc:	e18a0000 	orr	r0, sl, r0
     3c0:	e5c90000 	strb	r0, [r9]
     3c4:	e3580000 	cmp	r8, #0
     3c8:	e3a01004 	mov	r1, #4
     3cc:	e3a00024 	mov	r0, #36	; 0x24
     3d0:	0a00001d 	beq	44c <sdio_rsp_block_read+0x184>
     3d4:	ebfffffe 	bl	0 <gpio_read>
     3d8:	e284a004 	add	sl, r4, #4
     3dc:	e59de000 	ldr	lr, [sp]
     3e0:	e1a02226 	lsr	r2, r6, #4
     3e4:	e35b0000 	cmp	fp, #0
     3e8:	e1822e07 	orr	r2, r2, r7, lsl #28
     3ec:	e1a03227 	lsr	r3, r7, #4
     3f0:	e1a0c1ca 	asr	ip, sl, #3
     3f4:	e28ee007 	add	lr, lr, #7
     3f8:	e0201006 	eor	r1, r0, r6
     3fc:	e201100f 	and	r1, r1, #15
     400:	0a00003c 	beq	4f8 <sdio_rsp_block_read+0x230>
     404:	e59d6000 	ldr	r6, [sp]
     408:	e15601c4 	cmp	r6, r4, asr #3
     40c:	c5db4000 	ldrbgt	r4, [fp]
     410:	c1800204 	orrgt	r0, r0, r4, lsl #4
     414:	c5cb0000 	strbgt	r0, [fp]
     418:	e59f010c 	ldr	r0, [pc, #268]	; 52c <sdio_rsp_block_read+0x264>
     41c:	e1a01181 	lsl	r1, r1, #3
     420:	e15c000e 	cmp	ip, lr
     424:	e18060d1 	ldrd	r6, [r0, r1]
     428:	e0260002 	eor	r0, r6, r2
     42c:	e0271003 	eor	r1, r7, r3
     430:	e1a06000 	mov	r6, r0
     434:	e1a07001 	mov	r7, r1
     438:	da000018 	ble	4a0 <sdio_rsp_block_read+0x1d8>
     43c:	e3a08000 	mov	r8, #0
     440:	e1a0400a 	mov	r4, sl
     444:	e1a0a008 	mov	sl, r8
     448:	ea000003 	b	45c <sdio_rsp_block_read+0x194>
     44c:	ebfffffe 	bl	0 <gpio_read>
     450:	e16f8f10 	clz	r8, r0
     454:	e1a082a8 	lsr	r8, r8, #5
     458:	e1a0a008 	mov	sl, r8
     45c:	e3a00001 	mov	r0, #1
     460:	ebfffffe 	bl	0 <usdelay>
     464:	e355002f 	cmp	r5, #47	; 0x2f
     468:	d38aa001 	orrle	sl, sl, #1
     46c:	e3a01000 	mov	r1, #0
     470:	e3a00022 	mov	r0, #34	; 0x22
     474:	ebfffffe 	bl	0 <gpio_out>
     478:	e35a0000 	cmp	sl, #0
     47c:	1affffbe 	bne	37c <sdio_rsp_block_read+0xb4>
     480:	e59d3004 	ldr	r3, [sp, #4]
     484:	e2444040 	sub	r4, r4, #64	; 0x40
     488:	e3540000 	cmp	r4, #0
     48c:	c1a001c4 	asrgt	r0, r4, #3
     490:	d1a0000a 	movle	r0, sl
     494:	e1c360f0 	strd	r6, [r3]
     498:	e28dd00c 	add	sp, sp, #12
     49c:	e8bd8ff0 	pop	{r4, r5, r6, r7, r8, r9, sl, fp, pc}
     4a0:	e59d3000 	ldr	r3, [sp]
     4a4:	e15c0003 	cmp	ip, r3
     4a8:	aa000002 	bge	4b8 <sdio_rsp_block_read+0x1f0>
     4ac:	e21a3007 	ands	r3, sl, #7
     4b0:	05cb3001 	strbeq	r3, [fp, #1]
     4b4:	028bb001 	addeq	fp, fp, #1
     4b8:	e3a00001 	mov	r0, #1
     4bc:	ebfffffe 	bl	0 <usdelay>
     4c0:	e3a01000 	mov	r1, #0
     4c4:	e3a00022 	mov	r0, #34	; 0x22
     4c8:	e1a0400a 	mov	r4, sl
     4cc:	ebfffffe 	bl	0 <gpio_out>
     4d0:	eaffffa9 	b	37c <sdio_rsp_block_read+0xb4>
     4d4:	e3550000 	cmp	r5, #0
     4d8:	0affffa2 	beq	368 <sdio_rsp_block_read+0xa0>
     4dc:	e59d1004 	ldr	r1, [sp, #4]
     4e0:	e3a02000 	mov	r2, #0
     4e4:	e3a03000 	mov	r3, #0
     4e8:	e1a00004 	mov	r0, r4
     4ec:	e1c120f0 	strd	r2, [r1]
     4f0:	e28dd00c 	add	sp, sp, #12
     4f4:	e8bd8ff0 	pop	{r4, r5, r6, r7, r8, r9, sl, fp, pc}
     4f8:	e59f002c 	ldr	r0, [pc, #44]	; 52c <sdio_rsp_block_read+0x264>
     4fc:	e1a01181 	lsl	r1, r1, #3
     500:	e15c000e 	cmp	ip, lr
     504:	e18060d1 	ldrd	r6, [r0, r1]
     508:	e0260002 	eor	r0, r6, r2
     50c:	e0271003 	eor	r1, r7, r3
     510:	e1a06000 	mov	r6, r0
     514:	e1a07001 	mov	r7, r1
     518:	daffffe6 	ble	4b8 <sdio_rsp_block_read+0x1f0>
     51c:	e1a0400a 	mov	r4, sl
     520:	e1a0800b 	mov	r8, fp
     524:	e1a0a00b 	mov	sl, fp
     528:	eaffffcb 	b	45c <sdio_rsp_block_read+0x194>
     52c:	00000000 	.word	0x00000000

00000530 <clk_0>:
     530:	e3500000 	cmp	r0, #0
     534:	e92d4070 	push	{r4, r5, r6, lr}
     538:	059f4090 	ldreq	r4, [pc, #144]	; 5d0 <clk_0+0xa0>
     53c:	0a000016 	beq	59c <clk_0+0x6c>
     540:	e59f4088 	ldr	r4, [pc, #136]	; 5d0 <clk_0+0xa0>
     544:	e2405001 	sub	r5, r0, #1
     548:	e3a00001 	mov	r0, #1
     54c:	ebfffffe 	bl	0 <usdelay>
     550:	e5d43000 	ldrb	r3, [r4]
     554:	e16f3f13 	clz	r3, r3
     558:	e1a032a3 	lsr	r3, r3, #5
     55c:	e1a01003 	mov	r1, r3
     560:	e3a00022 	mov	r0, #34	; 0x22
     564:	e5c43000 	strb	r3, [r4]
     568:	ebfffffe 	bl	0 <gpio_out>
     56c:	e3a00001 	mov	r0, #1
     570:	ebfffffe 	bl	0 <usdelay>
     574:	e5d43000 	ldrb	r3, [r4]
     578:	e16f3f13 	clz	r3, r3
     57c:	e1a032a3 	lsr	r3, r3, #5
     580:	e2455001 	sub	r5, r5, #1
     584:	e1a01003 	mov	r1, r3
     588:	e3a00022 	mov	r0, #34	; 0x22
     58c:	e5c43000 	strb	r3, [r4]
     590:	ebfffffe 	bl	0 <gpio_out>
     594:	e3750001 	cmn	r5, #1
     598:	1affffea 	bne	548 <clk_0+0x18>
     59c:	e5d43000 	ldrb	r3, [r4]
     5a0:	e3530000 	cmp	r3, #0
     5a4:	08bd8070 	popeq	{r4, r5, r6, pc}
     5a8:	e3a00001 	mov	r0, #1
     5ac:	ebfffffe 	bl	0 <usdelay>
     5b0:	e5d43000 	ldrb	r3, [r4]
     5b4:	e16f3f13 	clz	r3, r3
     5b8:	e1a032a3 	lsr	r3, r3, #5
     5bc:	e5c43000 	strb	r3, [r4]
     5c0:	e1a01003 	mov	r1, r3
     5c4:	e3a00022 	mov	r0, #34	; 0x22
     5c8:	e8bd4070 	pop	{r4, r5, r6, lr}
     5cc:	eafffffe 	b	0 <gpio_out>
     5d0:	00000000 	.word	0x00000000

000005d4 <sdio_block_out>:
     5d4:	e92d4ff8 	push	{r3, r4, r5, r6, r7, r8, r9, sl, fp, lr}
     5d8:	e1a08001 	mov	r8, r1
     5dc:	e1a09000 	mov	r9, r0
     5e0:	e3a00001 	mov	r0, #1
     5e4:	ebfffffe 	bl	530 <clk_0>
     5e8:	e3a02000 	mov	r2, #0
     5ec:	e3a01004 	mov	r1, #4
     5f0:	e3a00024 	mov	r0, #36	; 0x24
     5f4:	ebfffffe 	bl	0 <gpio_write>
     5f8:	e1a08188 	lsl	r8, r8, #3
     5fc:	e3a00001 	mov	r0, #1
     600:	ebfffffe 	bl	530 <clk_0>
     604:	e3580000 	cmp	r8, #0
     608:	da000036 	ble	6e8 <sdio_block_out+0x114>
     60c:	e59fb0e0 	ldr	fp, [pc, #224]	; 6f4 <sdio_block_out+0x120>
     610:	e3a04000 	mov	r4, #0
     614:	e3a05000 	mov	r5, #0
     618:	e3a0a000 	mov	sl, #0
     61c:	e7d961ca 	ldrb	r6, [r9, sl, asr #3]
     620:	e31a0007 	tst	sl, #7
     624:	e3a01004 	mov	r1, #4
     628:	1206600f 	andne	r6, r6, #15
     62c:	01a06226 	lsreq	r6, r6, #4
     630:	e1a02006 	mov	r2, r6
     634:	e3a00024 	mov	r0, #36	; 0x24
     638:	ebfffffe 	bl	0 <gpio_write>
     63c:	e3a01001 	mov	r1, #1
     640:	e3a00022 	mov	r0, #34	; 0x22
     644:	ebfffffe 	bl	0 <gpio_out>
     648:	e0263004 	eor	r3, r6, r4
     64c:	e203300f 	and	r3, r3, #15
     650:	e1a06224 	lsr	r6, r4, #4
     654:	e1a03183 	lsl	r3, r3, #3
     658:	e1866e05 	orr	r6, r6, r5, lsl #28
     65c:	e18320db 	ldrd	r2, [r3, fp]
     660:	e28aa004 	add	sl, sl, #4
     664:	e1a07225 	lsr	r7, r5, #4
     668:	e3a01000 	mov	r1, #0
     66c:	e3a00022 	mov	r0, #34	; 0x22
     670:	e0264002 	eor	r4, r6, r2
     674:	e0275003 	eor	r5, r7, r3
     678:	ebfffffe 	bl	0 <gpio_out>
     67c:	e15a0008 	cmp	sl, r8
     680:	baffffe5 	blt	61c <sdio_block_out+0x48>
     684:	e3a06010 	mov	r6, #16
     688:	e204200f 	and	r2, r4, #15
     68c:	e3a01004 	mov	r1, #4
     690:	e3a00024 	mov	r0, #36	; 0x24
     694:	ebfffffe 	bl	0 <gpio_write>
     698:	e3a01001 	mov	r1, #1
     69c:	e3a00022 	mov	r0, #34	; 0x22
     6a0:	ebfffffe 	bl	0 <gpio_out>
     6a4:	e1a03224 	lsr	r3, r4, #4
     6a8:	e1833e05 	orr	r3, r3, r5, lsl #28
     6ac:	e1a02225 	lsr	r2, r5, #4
     6b0:	e3a01000 	mov	r1, #0
     6b4:	e3a00022 	mov	r0, #34	; 0x22
     6b8:	e1a04003 	mov	r4, r3
     6bc:	e1a05002 	mov	r5, r2
     6c0:	ebfffffe 	bl	0 <gpio_out>
     6c4:	e2566001 	subs	r6, r6, #1
     6c8:	1affffee 	bne	688 <sdio_block_out+0xb4>
     6cc:	e3a00024 	mov	r0, #36	; 0x24
     6d0:	e3a0200f 	mov	r2, #15
     6d4:	e3a01004 	mov	r1, #4
     6d8:	ebfffffe 	bl	0 <gpio_write>
     6dc:	e3a00001 	mov	r0, #1
     6e0:	e8bd4ff8 	pop	{r3, r4, r5, r6, r7, r8, r9, sl, fp, lr}
     6e4:	eafffffe 	b	530 <clk_0>
     6e8:	e3a04000 	mov	r4, #0
     6ec:	e3a05000 	mov	r5, #0
     6f0:	eaffffe3 	b	684 <sdio_block_out+0xb0>
     6f4:	00000000 	.word	0x00000000

000006f8 <sdio_rsp_block_write>:
     6f8:	e92d4070 	push	{r4, r5, r6, lr}
     6fc:	e1a06001 	mov	r6, r1
     700:	e1a05002 	mov	r5, r2
     704:	e3a01030 	mov	r1, #48	; 0x30
     708:	e3a02023 	mov	r2, #35	; 0x23
     70c:	ebfffffe 	bl	1a0 <sdio_rsp_read>
     710:	e2504000 	subs	r4, r0, #0
     714:	0a000021 	beq	7a0 <sdio_rsp_block_write+0xa8>
     718:	e3a00001 	mov	r0, #1
     71c:	ebfffffe 	bl	530 <clk_0>
     720:	e3a020ff 	mov	r2, #255	; 0xff
     724:	e3a01004 	mov	r1, #4
     728:	e3a00024 	mov	r0, #36	; 0x24
     72c:	ebfffffe 	bl	0 <gpio_write>
     730:	e3a01001 	mov	r1, #1
     734:	e3a00024 	mov	r0, #36	; 0x24
     738:	ebfffffe 	bl	0 <gpio_mode>
     73c:	e3a01001 	mov	r1, #1
     740:	e3a00025 	mov	r0, #37	; 0x25
     744:	ebfffffe 	bl	0 <gpio_mode>
     748:	e3a01001 	mov	r1, #1
     74c:	e3a00026 	mov	r0, #38	; 0x26
     750:	ebfffffe 	bl	0 <gpio_mode>
     754:	e3a01001 	mov	r1, #1
     758:	e3a00027 	mov	r0, #39	; 0x27
     75c:	ebfffffe 	bl	0 <gpio_mode>
     760:	e1a01005 	mov	r1, r5
     764:	e1a00006 	mov	r0, r6
     768:	ebfffffe 	bl	5d4 <sdio_block_out>
     76c:	e3a01000 	mov	r1, #0
     770:	e3a00024 	mov	r0, #36	; 0x24
     774:	ebfffffe 	bl	0 <gpio_mode>
     778:	e3a01000 	mov	r1, #0
     77c:	e3a00025 	mov	r0, #37	; 0x25
     780:	ebfffffe 	bl	0 <gpio_mode>
     784:	e3a01000 	mov	r1, #0
     788:	e3a00026 	mov	r0, #38	; 0x26
     78c:	ebfffffe 	bl	0 <gpio_mode>
     790:	e3a01000 	mov	r1, #0
     794:	e3a00027 	mov	r0, #39	; 0x27
     798:	ebfffffe 	bl	0 <gpio_mode>
     79c:	e1a04005 	mov	r4, r5
     7a0:	e3a00001 	mov	r0, #1
     7a4:	ebfffffe 	bl	530 <clk_0>
     7a8:	e1a00004 	mov	r0, r4
     7ac:	e8bd8070 	pop	{r4, r5, r6, pc}

000007b0 <sdio_cmd_rsp>:
     7b0:	e92d4070 	push	{r4, r5, r6, lr}
     7b4:	e1a05000 	mov	r5, r0
     7b8:	e24dd008 	sub	sp, sp, #8
     7bc:	e3a00002 	mov	r0, #2
     7c0:	e1a04001 	mov	r4, r1
     7c4:	ebfffffe 	bl	530 <clk_0>
     7c8:	e59fc094 	ldr	ip, [pc, #148]	; 864 <sdio_cmd_rsp+0xb4>
     7cc:	e2850005 	add	r0, r5, #5
     7d0:	e1a02005 	mov	r2, r5
     7d4:	e3a03000 	mov	r3, #0
     7d8:	e4d21001 	ldrb	r1, [r2], #1
     7dc:	e0233001 	eor	r3, r3, r1
     7e0:	e1520000 	cmp	r2, r0
     7e4:	e7dc3003 	ldrb	r3, [ip, r3]
     7e8:	1afffffa 	bne	7d8 <sdio_cmd_rsp+0x28>
     7ec:	e59f6074 	ldr	r6, [pc, #116]	; 868 <sdio_cmd_rsp+0xb8>
     7f0:	e3833001 	orr	r3, r3, #1
     7f4:	e5c53005 	strb	r3, [r5, #5]
     7f8:	e5963000 	ldr	r3, [r6]
     7fc:	e3540000 	cmp	r4, #0
     800:	01a0400d 	moveq	r4, sp
     804:	e3530000 	cmp	r3, #0
     808:	1a000012 	bne	858 <sdio_cmd_rsp+0xa8>
     80c:	e1a00005 	mov	r0, r5
     810:	e3a01030 	mov	r1, #48	; 0x30
     814:	ebfffffe 	bl	114 <sdio_cmd_write>
     818:	e3a03000 	mov	r3, #0
     81c:	e5843000 	str	r3, [r4]
     820:	e1c430b4 	strh	r3, [r4, #4]
     824:	e3a02023 	mov	r2, #35	; 0x23
     828:	e3a01030 	mov	r1, #48	; 0x30
     82c:	e1a00004 	mov	r0, r4
     830:	ebfffffe 	bl	1a0 <sdio_rsp_read>
     834:	e5963000 	ldr	r3, [r6]
     838:	e3530000 	cmp	r3, #0
     83c:	e1a05000 	mov	r5, r0
     840:	0a000001 	beq	84c <sdio_cmd_rsp+0x9c>
     844:	e1a00004 	mov	r0, r4
     848:	ebfffdec 	bl	0 <log_msg.part.2>
     84c:	e1a00005 	mov	r0, r5
     850:	e28dd008 	add	sp, sp, #8
     854:	e8bd8070 	pop	{r4, r5, r6, pc}
     858:	e1a00005 	mov	r0, r5
     85c:	ebfffde7 	bl	0 <log_msg.part.2>
     860:	eaffffe9 	b	80c <sdio_cmd_rsp+0x5c>
	...

0000086c <sdio_cmd7>:
     86c:	e6bf0fb0 	rev16	r0, r0
     870:	e52de004 	push	{lr}		; (str lr, [sp, #-4]!)
     874:	e6ff3070 	uxth	r3, r0
     878:	e24dd00c 	sub	sp, sp, #12
     87c:	e3a02000 	mov	r2, #0
     880:	e58d2000 	str	r2, [sp]
     884:	e58d2004 	str	r2, [sp, #4]
     888:	e1a0e423 	lsr	lr, r3, #8
     88c:	e3a0c047 	mov	ip, #71	; 0x47
     890:	e3a02001 	mov	r2, #1
     894:	e1a0000d 	mov	r0, sp
     898:	e5cde002 	strb	lr, [sp, #2]
     89c:	e5cd3001 	strb	r3, [sp, #1]
     8a0:	e5cdc000 	strb	ip, [sp]
     8a4:	e5cd2005 	strb	r2, [sp, #5]
     8a8:	ebfffffe 	bl	7b0 <sdio_cmd_rsp>
     8ac:	e28dd00c 	add	sp, sp, #12
     8b0:	e49df004 	pop	{pc}		; (ldr pc, [sp], #4)

000008b4 <sdio_cmd52>:
     8b4:	e92d4010 	push	{r4, lr}
     8b8:	e24dd008 	sub	sp, sp, #8
     8bc:	e1a0c7c1 	asr	ip, r1, #15
     8c0:	e59de010 	ldr	lr, [sp, #16]
     8c4:	e2000007 	and	r0, r0, #7
     8c8:	e20ee001 	and	lr, lr, #1
     8cc:	e20cc003 	and	ip, ip, #3
     8d0:	e18cc18e 	orr	ip, ip, lr, lsl #3
     8d4:	e2033001 	and	r3, r3, #1
     8d8:	e18cc200 	orr	ip, ip, r0, lsl #4
     8dc:	e18c3383 	orr	r3, ip, r3, lsl #7
     8e0:	e1a043c1 	asr	r4, r1, #7
     8e4:	e1a01081 	lsl	r1, r1, #1
     8e8:	e3a0e000 	mov	lr, #0
     8ec:	e5cd3001 	strb	r3, [sp, #1]
     8f0:	e3a0c074 	mov	ip, #116	; 0x74
     8f4:	e3a03001 	mov	r3, #1
     8f8:	e5cd1003 	strb	r1, [sp, #3]
     8fc:	e1a0000d 	mov	r0, sp
     900:	e59d1014 	ldr	r1, [sp, #20]
     904:	e58de004 	str	lr, [sp, #4]
     908:	e5cd4002 	strb	r4, [sp, #2]
     90c:	e5cdc000 	strb	ip, [sp]
     910:	e5cd2004 	strb	r2, [sp, #4]
     914:	e5cd3005 	strb	r3, [sp, #5]
     918:	ebfffffe 	bl	7b0 <sdio_cmd_rsp>
     91c:	e28dd008 	add	sp, sp, #8
     920:	e8bd8010 	pop	{r4, pc}

00000924 <sdio_cmd52_writes>:
     924:	e3530000 	cmp	r3, #0
     928:	e92d43f0 	push	{r4, r5, r6, r7, r8, r9, lr}
     92c:	01a06003 	moveq	r6, r3
     930:	e24dd00c 	sub	sp, sp, #12
     934:	0a000011 	beq	980 <sdio_cmd52_writes+0x5c>
     938:	e3a06000 	mov	r6, #0
     93c:	e1a09000 	mov	r9, r0
     940:	e1a04001 	mov	r4, r1
     944:	e1a05002 	mov	r5, r2
     948:	e0838001 	add	r8, r3, r1
     94c:	e1a07006 	mov	r7, r6
     950:	e3a03001 	mov	r3, #1
     954:	e6ef2075 	uxtb	r2, r5
     958:	e1a01004 	mov	r1, r4
     95c:	e58d7004 	str	r7, [sp, #4]
     960:	e58d7000 	str	r7, [sp]
     964:	e1a00009 	mov	r0, r9
     968:	e0844003 	add	r4, r4, r3
     96c:	ebfffffe 	bl	8b4 <sdio_cmd52>
     970:	e1580004 	cmp	r8, r4
     974:	e1a05425 	lsr	r5, r5, #8
     978:	e0866000 	add	r6, r6, r0
     97c:	1afffff3 	bne	950 <sdio_cmd52_writes+0x2c>
     980:	e1a00006 	mov	r0, r6
     984:	e28dd00c 	add	sp, sp, #12
     988:	e8bd83f0 	pop	{r4, r5, r6, r7, r8, r9, pc}

0000098c <sdio_bak_window>:
     98c:	e92d4070 	push	{r4, r5, r6, lr}
     990:	e3c04c7f 	bic	r4, r0, #32512	; 0x7f00
     994:	e59f5028 	ldr	r5, [pc, #40]	; 9c4 <sdio_bak_window+0x38>
     998:	e3c440ff 	bic	r4, r4, #255	; 0xff
     99c:	e5953000 	ldr	r3, [r5]
     9a0:	e1530004 	cmp	r3, r4
     9a4:	0a000004 	beq	9bc <sdio_bak_window+0x30>
     9a8:	e3a03003 	mov	r3, #3
     9ac:	e1a02424 	lsr	r2, r4, #8
     9b0:	e59f1010 	ldr	r1, [pc, #16]	; 9c8 <sdio_bak_window+0x3c>
     9b4:	e3a00001 	mov	r0, #1
     9b8:	ebfffffe 	bl	924 <sdio_cmd52_writes>
     9bc:	e5854000 	str	r4, [r5]
     9c0:	e8bd8070 	pop	{r4, r5, r6, pc}
     9c4:	00000000 	.word	0x00000000
     9c8:	0001000a 	.word	0x0001000a

000009cc <sdio_bak_addr>:
     9cc:	e92d4010 	push	{r4, lr}
     9d0:	e1a04000 	mov	r4, r0
     9d4:	ebfffffe 	bl	98c <sdio_bak_window>
     9d8:	e1a00884 	lsl	r0, r4, #17
     9dc:	e1a008a0 	lsr	r0, r0, #17
     9e0:	e8bd8010 	pop	{r4, pc}

000009e4 <sdio_cmd52_reads>:
     9e4:	e92d4ff0 	push	{r4, r5, r6, r7, r8, r9, sl, fp, lr}
     9e8:	e24dd01c 	sub	sp, sp, #28
     9ec:	e3530000 	cmp	r3, #0
     9f0:	e58d200c 	str	r2, [sp, #12]
     9f4:	da00001a 	ble	a64 <sdio_cmd52_reads+0x80>
     9f8:	e3a05000 	mov	r5, #0
     9fc:	e1a09000 	mov	r9, r0
     a00:	e1a04001 	mov	r4, r1
     a04:	e0818003 	add	r8, r1, r3
     a08:	e1a06005 	mov	r6, r5
     a0c:	e1a07005 	mov	r7, r5
     a10:	e1a0b005 	mov	fp, r5
     a14:	e28da010 	add	sl, sp, #16
     a18:	e3a03000 	mov	r3, #0
     a1c:	e1a02003 	mov	r2, r3
     a20:	e1a01004 	mov	r1, r4
     a24:	e58da004 	str	sl, [sp, #4]
     a28:	e58db000 	str	fp, [sp]
     a2c:	e1a00009 	mov	r0, r9
     a30:	ebfffffe 	bl	8b4 <sdio_cmd52>
     a34:	e5dd3014 	ldrb	r3, [sp, #20]
     a38:	e2844001 	add	r4, r4, #1
     a3c:	e1540008 	cmp	r4, r8
     a40:	e1866513 	orr	r6, r6, r3, lsl r5
     a44:	e2855008 	add	r5, r5, #8
     a48:	e0877000 	add	r7, r7, r0
     a4c:	1afffff1 	bne	a18 <sdio_cmd52_reads+0x34>
     a50:	e59d300c 	ldr	r3, [sp, #12]
     a54:	e1a00007 	mov	r0, r7
     a58:	e5836000 	str	r6, [r3]
     a5c:	e28dd01c 	add	sp, sp, #28
     a60:	e8bd8ff0 	pop	{r4, r5, r6, r7, r8, r9, sl, fp, pc}
     a64:	e3a06000 	mov	r6, #0
     a68:	e1a07006 	mov	r7, r6
     a6c:	eafffff7 	b	a50 <sdio_cmd52_reads+0x6c>

00000a70 <sdio_cmd52_reads_check>:
     a70:	e92d4030 	push	{r4, r5, lr}
     a74:	e24dd00c 	sub	sp, sp, #12
     a78:	e1a04002 	mov	r4, r2
     a7c:	e1a05003 	mov	r5, r3
     a80:	e28d2004 	add	r2, sp, #4
     a84:	e59d3018 	ldr	r3, [sp, #24]
     a88:	ebfffffe 	bl	9e4 <sdio_cmd52_reads>
     a8c:	e3500000 	cmp	r0, #0
     a90:	159d0004 	ldrne	r0, [sp, #4]
     a94:	10000004 	andne	r0, r0, r4
     a98:	10400005 	subne	r0, r0, r5
     a9c:	116f0f10 	clzne	r0, r0
     aa0:	11a002a0 	lsrne	r0, r0, #5
     aa4:	e28dd00c 	add	sp, sp, #12
     aa8:	e8bd8030 	pop	{r4, r5, pc}

00000aac <sdio_cmd>:
     aac:	e92d4010 	push	{r4, lr}
     ab0:	e6bf3f31 	rev	r3, r1
     ab4:	e24dd008 	sub	sp, sp, #8
     ab8:	e200003f 	and	r0, r0, #63	; 0x3f
     abc:	e3800040 	orr	r0, r0, #64	; 0x40
     ac0:	e1a0e823 	lsr	lr, r3, #16
     ac4:	e1a01002 	mov	r1, r2
     ac8:	e1a04423 	lsr	r4, r3, #8
     acc:	e1a02c23 	lsr	r2, r3, #24
     ad0:	e5cd0000 	strb	r0, [sp]
     ad4:	e5cd3001 	strb	r3, [sp, #1]
     ad8:	e3a0c000 	mov	ip, #0
     adc:	e3a03001 	mov	r3, #1
     ae0:	e1a0000d 	mov	r0, sp
     ae4:	e58dc004 	str	ip, [sp, #4]
     ae8:	e5cd4002 	strb	r4, [sp, #2]
     aec:	e5cde003 	strb	lr, [sp, #3]
     af0:	e5cd2004 	strb	r2, [sp, #4]
     af4:	e5cd3005 	strb	r3, [sp, #5]
     af8:	ebfffffe 	bl	7b0 <sdio_cmd_rsp>
     afc:	e28dd008 	add	sp, sp, #8
     b00:	e8bd8010 	pop	{r4, pc}

00000b04 <crc7_init>:
     b04:	e59f003c 	ldr	r0, [pc, #60]	; b48 <crc7_init+0x44>
     b08:	e3a01000 	mov	r1, #0
     b0c:	e6ff3071 	uxth	r3, r1
     b10:	e3a02008 	mov	r2, #8
     b14:	e1a03083 	lsl	r3, r3, #1
     b18:	e2422001 	sub	r2, r2, #1
     b1c:	e6ff3073 	uxth	r3, r3
     b20:	e3130c01 	tst	r3, #256	; 0x100
     b24:	e6ff2072 	uxth	r2, r2
     b28:	12233012 	eorne	r3, r3, #18
     b2c:	e3520000 	cmp	r2, #0
     b30:	1afffff7 	bne	b14 <crc7_init+0x10>
     b34:	e2811001 	add	r1, r1, #1
     b38:	e3510c01 	cmp	r1, #256	; 0x100
     b3c:	e5e03001 	strb	r3, [r0, #1]!
     b40:	1afffff1 	bne	b0c <crc7_init+0x8>
     b44:	e12fff1e 	bx	lr
     b48:	ffffffff 	.word	0xffffffff

00000b4c <add_crc7>:
     b4c:	e52de004 	push	{lr}		; (str lr, [sp, #-4]!)
     b50:	e280c005 	add	ip, r0, #5
     b54:	e59fe024 	ldr	lr, [pc, #36]	; b80 <add_crc7+0x34>
     b58:	e1a02000 	mov	r2, r0
     b5c:	e3a03000 	mov	r3, #0
     b60:	e4d21001 	ldrb	r1, [r2], #1
     b64:	e0233001 	eor	r3, r3, r1
     b68:	e152000c 	cmp	r2, ip
     b6c:	e7de3003 	ldrb	r3, [lr, r3]
     b70:	1afffffa 	bne	b60 <add_crc7+0x14>
     b74:	e3833001 	orr	r3, r3, #1
     b78:	e5c03005 	strb	r3, [r0, #5]
     b7c:	e49df004 	pop	{pc}		; (ldr pc, [sp], #4)
     b80:	00000000 	.word	0x00000000

00000b84 <crc7_byte>:
     b84:	e3a03008 	mov	r3, #8
     b88:	e1a00080 	lsl	r0, r0, #1
     b8c:	e2433001 	sub	r3, r3, #1
     b90:	e6ff0070 	uxth	r0, r0
     b94:	e3100c01 	tst	r0, #256	; 0x100
     b98:	e6ff3073 	uxth	r3, r3
     b9c:	12200012 	eorne	r0, r0, #18
     ba0:	e3530000 	cmp	r3, #0
     ba4:	1afffff7 	bne	b88 <crc7_byte+0x4>
     ba8:	e6ef0070 	uxtb	r0, r0
     bac:	e12fff1e 	bx	lr

00000bb0 <crc7_data>:
     bb0:	e3510000 	cmp	r1, #0
     bb4:	0a000009 	beq	be0 <crc7_data+0x30>
     bb8:	e59fc028 	ldr	ip, [pc, #40]	; be8 <crc7_data+0x38>
     bbc:	e0801001 	add	r1, r0, r1
     bc0:	e3a03000 	mov	r3, #0
     bc4:	e4d02001 	ldrb	r2, [r0], #1
     bc8:	e0233002 	eor	r3, r3, r2
     bcc:	e1500001 	cmp	r0, r1
     bd0:	e7dc3003 	ldrb	r3, [ip, r3]
     bd4:	1afffffa 	bne	bc4 <crc7_data+0x14>
     bd8:	e3830001 	orr	r0, r3, #1
     bdc:	e12fff1e 	bx	lr
     be0:	e3a00001 	mov	r0, #1
     be4:	e12fff1e 	bx	lr
     be8:	00000000 	.word	0x00000000

00000bec <disp_bytes>:
     bec:	e3510000 	cmp	r1, #0
     bf0:	012fff1e 	bxeq	lr
     bf4:	e92d4070 	push	{r4, r5, r6, lr}
     bf8:	e1a04000 	mov	r4, r0
     bfc:	e59f6018 	ldr	r6, [pc, #24]	; c1c <disp_bytes+0x30>
     c00:	e0805001 	add	r5, r0, r1
     c04:	e4d41001 	ldrb	r1, [r4], #1
     c08:	e1a00006 	mov	r0, r6
     c0c:	ebfffffe 	bl	0 <printf>
     c10:	e1550004 	cmp	r5, r4
     c14:	1afffffa 	bne	c04 <disp_bytes+0x18>
     c18:	e8bd8070 	pop	{r4, r5, r6, pc}
     c1c:	00000000 	.word	0x00000000

00000c20 <dump_msg>:
     c20:	e92d41f0 	push	{r4, r5, r6, r7, r8, lr}
     c24:	e1a07000 	mov	r7, r0
     c28:	e59f0064 	ldr	r0, [pc, #100]	; c94 <dump_msg+0x74>
     c2c:	e2876005 	add	r6, r7, #5
     c30:	e1a02007 	mov	r2, r7
     c34:	e3a03000 	mov	r3, #0
     c38:	e4d21001 	ldrb	r1, [r2], #1
     c3c:	e0233001 	eor	r3, r3, r1
     c40:	e1520006 	cmp	r2, r6
     c44:	e7d03003 	ldrb	r3, [r0, r3]
     c48:	1afffffa 	bne	c38 <dump_msg+0x18>
     c4c:	e59f8044 	ldr	r8, [pc, #68]	; c98 <dump_msg+0x78>
     c50:	e3834001 	orr	r4, r3, #1
     c54:	e2475001 	sub	r5, r7, #1
     c58:	e5f51001 	ldrb	r1, [r5, #1]!
     c5c:	e1a00008 	mov	r0, r8
     c60:	ebfffffe 	bl	0 <printf>
     c64:	e1550006 	cmp	r5, r6
     c68:	1afffffa 	bne	c58 <dump_msg+0x38>
     c6c:	e5d70005 	ldrb	r0, [r7, #5]
     c70:	e59f2024 	ldr	r2, [pc, #36]	; c9c <dump_msg+0x7c>
     c74:	e59f3024 	ldr	r3, [pc, #36]	; ca0 <dump_msg+0x80>
     c78:	e1500004 	cmp	r0, r4
     c7c:	01a00002 	moveq	r0, r2
     c80:	11a00003 	movne	r0, r3
     c84:	ebfffffe 	bl	0 <printf>
     c88:	e3a0000a 	mov	r0, #10
     c8c:	e8bd41f0 	pop	{r4, r5, r6, r7, r8, lr}
     c90:	eafffffe 	b	0 <putchar>
	...
     c9c:	00000008 	.word	0x00000008
     ca0:	0000000c 	.word	0x0000000c

00000ca4 <qcrc16r_init>:
     ca4:	e92d4ff0 	push	{r4, r5, r6, r7, r8, r9, sl, fp, lr}
     ca8:	e3a04000 	mov	r4, #0
     cac:	e3a05000 	mov	r5, #0
     cb0:	e3a01000 	mov	r1, #0
     cb4:	e1a02004 	mov	r2, r4
     cb8:	e1a03005 	mov	r3, r5
     cbc:	e59f80ec 	ldr	r8, [pc, #236]	; db0 <qcrc16r_init+0x10c>
     cc0:	e3a0c001 	mov	ip, #1
     cc4:	ea000004 	b	cdc <qcrc16r_init+0x38>
     cc8:	e3160001 	tst	r6, #1
     ccc:	11a0201c 	lslne	r2, ip, r0
     cd0:	e183373c 	orr	r3, r3, ip, lsr r7
     cd4:	03a02000 	moveq	r2, #0
     cd8:	03a03000 	moveq	r3, #0
     cdc:	e2811001 	add	r1, r1, #1
     ce0:	e3510010 	cmp	r1, #16
     ce4:	e1a00101 	lsl	r0, r1, #2
     ce8:	e240e020 	sub	lr, r0, #32
     cec:	e1855003 	orr	r5, r5, r3
     cf0:	e2607020 	rsb	r7, r0, #32
     cf4:	e1a06158 	asr	r6, r8, r1
     cf8:	e1844002 	orr	r4, r4, r2
     cfc:	e1a03e1c 	lsl	r3, ip, lr
     d00:	1afffff0 	bne	cc8 <qcrc16r_init+0x24>
     d04:	e59f30a8 	ldr	r3, [pc, #168]	; db4 <qcrc16r_init+0x110>
     d08:	e1a0e105 	lsl	lr, r5, #2
     d0c:	e1a0c185 	lsl	ip, r5, #3
     d10:	e094a004 	adds	sl, r4, r4
     d14:	e59f209c 	ldr	r2, [pc, #156]	; db8 <qcrc16r_init+0x114>
     d18:	e1c340f0 	strd	r4, [r3]
     d1c:	e18eef24 	orr	lr, lr, r4, lsr #30
     d20:	e18ccea4 	orr	ip, ip, r4, lsr #29
     d24:	e1a08104 	lsl	r8, r4, #2
     d28:	e0a5b005 	adc	fp, r5, r5
     d2c:	e1a09184 	lsl	r9, r4, #3
     d30:	e3a03000 	mov	r3, #0
     d34:	e3a00000 	mov	r0, #0
     d38:	e3a01000 	mov	r1, #0
     d3c:	e3130004 	tst	r3, #4
     d40:	03a06000 	moveq	r6, #0
     d44:	03a07000 	moveq	r7, #0
     d48:	0a000001 	beq	d54 <qcrc16r_init+0xb0>
     d4c:	e1a06008 	mov	r6, r8
     d50:	e1a0700e 	mov	r7, lr
     d54:	e3130002 	tst	r3, #2
     d58:	1186600a 	orrne	r6, r6, sl
     d5c:	1187700b 	orrne	r7, r7, fp
     d60:	e3130001 	tst	r3, #1
     d64:	11866004 	orrne	r6, r6, r4
     d68:	11877005 	orrne	r7, r7, r5
     d6c:	e2833001 	add	r3, r3, #1
     d70:	e1800006 	orr	r0, r0, r6
     d74:	e1811007 	orr	r1, r1, r7
     d78:	e3530010 	cmp	r3, #16
     d7c:	e0c200f8 	strd	r0, [r2], #8
     d80:	08bd8ff0 	popeq	{r4, r5, r6, r7, r8, r9, sl, fp, pc}
     d84:	e3130008 	tst	r3, #8
     d88:	03a00000 	moveq	r0, #0
     d8c:	03a01000 	moveq	r1, #0
     d90:	0affffe9 	beq	d3c <qcrc16r_init+0x98>
     d94:	e3130004 	tst	r3, #4
     d98:	e1a00009 	mov	r0, r9
     d9c:	e1a0100c 	mov	r1, ip
     da0:	03a06000 	moveq	r6, #0
     da4:	03a07000 	moveq	r7, #0
     da8:	0affffe9 	beq	d54 <qcrc16r_init+0xb0>
     dac:	eaffffe6 	b	d4c <qcrc16r_init+0xa8>
     db0:	00008408 	.word	0x00008408
	...

00000dbc <quadval>:
     dbc:	e3a03000 	mov	r3, #0
     dc0:	e92d43f0 	push	{r4, r5, r6, r7, r8, r9, lr}
     dc4:	e3a0c001 	mov	ip, #1
     dc8:	e1a09003 	mov	r9, r3
     dcc:	e3a06000 	mov	r6, #0
     dd0:	e3a07000 	mov	r7, #0
     dd4:	e1a02350 	asr	r2, r0, r3
     dd8:	e1a01103 	lsl	r1, r3, #2
     ddc:	e3120001 	tst	r2, #1
     de0:	e2418020 	sub	r8, r1, #32
     de4:	e261e020 	rsb	lr, r1, #32
     de8:	e2833001 	add	r3, r3, #1
     dec:	0a000004 	beq	e04 <quadval+0x48>
     df0:	e1a0581c 	lsl	r5, ip, r8
     df4:	e1a0411c 	lsl	r4, ip, r1
     df8:	e1855e3c 	orr	r5, r5, ip, lsr lr
     dfc:	e1866004 	orr	r6, r6, r4
     e00:	e1877005 	orr	r7, r7, r5
     e04:	e3530010 	cmp	r3, #16
     e08:	1afffff1 	bne	dd4 <quadval+0x18>
     e0c:	e1a00006 	mov	r0, r6
     e10:	e1a01007 	mov	r1, r7
     e14:	e8bd83f0 	pop	{r4, r5, r6, r7, r8, r9, pc}

00000e18 <disp_cmd52>:
     e18:	e1d010d1 	ldrsb	r1, [r0, #1]
     e1c:	e59f208c 	ldr	r2, [pc, #140]	; eb0 <disp_cmd52+0x98>
     e20:	e59f308c 	ldr	r3, [pc, #140]	; eb4 <disp_cmd52+0x9c>
     e24:	e3510000 	cmp	r1, #0
     e28:	e92d4010 	push	{r4, lr}
     e2c:	e1a04000 	mov	r4, r0
     e30:	b1a01002 	movlt	r1, r2
     e34:	a1a01003 	movge	r1, r3
     e38:	e59f0078 	ldr	r0, [pc, #120]	; eb8 <disp_cmd52+0xa0>
     e3c:	ebfffffe 	bl	0 <printf>
     e40:	e5d41001 	ldrb	r1, [r4, #1]
     e44:	e2111070 	ands	r1, r1, #112	; 0x70
     e48:	0a000016 	beq	ea8 <disp_cmd52+0x90>
     e4c:	e59f3068 	ldr	r3, [pc, #104]	; ebc <disp_cmd52+0xa4>
     e50:	e59f2068 	ldr	r2, [pc, #104]	; ec0 <disp_cmd52+0xa8>
     e54:	e3510010 	cmp	r1, #16
     e58:	01a01003 	moveq	r1, r3
     e5c:	11a01002 	movne	r1, r2
     e60:	e59f0050 	ldr	r0, [pc, #80]	; eb8 <disp_cmd52+0xa0>
     e64:	ebfffffe 	bl	0 <printf>
     e68:	e5d43001 	ldrb	r3, [r4, #1]
     e6c:	e5d42002 	ldrb	r2, [r4, #2]
     e70:	e5d41003 	ldrb	r1, [r4, #3]
     e74:	e2033003 	and	r3, r3, #3
     e78:	e59f0044 	ldr	r0, [pc, #68]	; ec4 <disp_cmd52+0xac>
     e7c:	e1a03783 	lsl	r3, r3, #15
     e80:	e1833382 	orr	r3, r3, r2, lsl #7
     e84:	e18310a1 	orr	r1, r3, r1, lsr #1
     e88:	ebfffffe 	bl	0 <printf>
     e8c:	e1d430d1 	ldrsb	r3, [r4, #1]
     e90:	e3530000 	cmp	r3, #0
     e94:	a8bd8010 	popge	{r4, pc}
     e98:	e5d41004 	ldrb	r1, [r4, #4]
     e9c:	e59f0024 	ldr	r0, [pc, #36]	; ec8 <disp_cmd52+0xb0>
     ea0:	e8bd4010 	pop	{r4, lr}
     ea4:	eafffffe 	b	0 <printf>
     ea8:	e59f101c 	ldr	r1, [pc, #28]	; ecc <disp_cmd52+0xb4>
     eac:	eaffffeb 	b	e60 <disp_cmd52+0x48>
     eb0:	00000010 	.word	0x00000010
     eb4:	00000014 	.word	0x00000014
     eb8:	00000030 	.word	0x00000030
     ebc:	00000028 	.word	0x00000028
     ec0:	00000018 	.word	0x00000018
     ec4:	00000034 	.word	0x00000034
     ec8:	0000003c 	.word	0x0000003c
     ecc:	00000020 	.word	0x00000020

00000ed0 <disp_rsp52>:
     ed0:	e1a03000 	mov	r3, r0
     ed4:	e59f0008 	ldr	r0, [pc, #8]	; ee4 <disp_rsp52+0x14>
     ed8:	e5d32004 	ldrb	r2, [r3, #4]
     edc:	e5d31003 	ldrb	r1, [r3, #3]
     ee0:	eafffffe 	b	0 <printf>
     ee4:	00000044 	.word	0x00000044

00000ee8 <disp_cmd53>:
     ee8:	e92d4070 	push	{r4, r5, r6, lr}
     eec:	e1a04000 	mov	r4, r0
     ef0:	e5d03003 	ldrb	r3, [r0, #3]
     ef4:	e1d000d1 	ldrsb	r0, [r0, #1]
     ef8:	e5d45004 	ldrb	r5, [r4, #4]
     efc:	e59f208c 	ldr	r2, [pc, #140]	; f90 <disp_cmd53+0xa8>
     f00:	e3500000 	cmp	r0, #0
     f04:	e2033001 	and	r3, r3, #1
     f08:	e59f1084 	ldr	r1, [pc, #132]	; f94 <disp_cmd53+0xac>
     f0c:	e59f0084 	ldr	r0, [pc, #132]	; f98 <disp_cmd53+0xb0>
     f10:	a1a01002 	movge	r1, r2
     f14:	e0855403 	add	r5, r5, r3, lsl #8
     f18:	ebfffffe 	bl	0 <printf>
     f1c:	e5d41001 	ldrb	r1, [r4, #1]
     f20:	e2111070 	ands	r1, r1, #112	; 0x70
     f24:	0a000017 	beq	f88 <disp_cmd53+0xa0>
     f28:	e59f306c 	ldr	r3, [pc, #108]	; f9c <disp_cmd53+0xb4>
     f2c:	e59f206c 	ldr	r2, [pc, #108]	; fa0 <disp_cmd53+0xb8>
     f30:	e3510010 	cmp	r1, #16
     f34:	01a01003 	moveq	r1, r3
     f38:	11a01002 	movne	r1, r2
     f3c:	e59f0054 	ldr	r0, [pc, #84]	; f98 <disp_cmd53+0xb0>
     f40:	ebfffffe 	bl	0 <printf>
     f44:	e5d40001 	ldrb	r0, [r4, #1]
     f48:	e5d4c002 	ldrb	ip, [r4, #2]
     f4c:	e5d41003 	ldrb	r1, [r4, #3]
     f50:	e2003003 	and	r3, r0, #3
     f54:	e3100008 	tst	r0, #8
     f58:	e59f0044 	ldr	r0, [pc, #68]	; fa4 <disp_cmd53+0xbc>
     f5c:	e1a03783 	lsl	r3, r3, #15
     f60:	e183338c 	orr	r3, r3, ip, lsl #7
     f64:	e59f203c 	ldr	r2, [pc, #60]	; fa8 <disp_cmd53+0xc0>
     f68:	01a02000 	moveq	r2, r0
     f6c:	e3550000 	cmp	r5, #0
     f70:	e18310a1 	orr	r1, r3, r1, lsr #1
     f74:	e59f0030 	ldr	r0, [pc, #48]	; fac <disp_cmd53+0xc4>
     f78:	11a03005 	movne	r3, r5
     f7c:	03a03c02 	moveq	r3, #512	; 0x200
     f80:	e8bd4070 	pop	{r4, r5, r6, lr}
     f84:	eafffffe 	b	0 <printf>
     f88:	e59f1020 	ldr	r1, [pc, #32]	; fb0 <disp_cmd53+0xc8>
     f8c:	eaffffea 	b	f3c <disp_cmd53+0x54>
     f90:	00000014 	.word	0x00000014
     f94:	00000010 	.word	0x00000010
     f98:	00000030 	.word	0x00000030
     f9c:	00000028 	.word	0x00000028
     fa0:	00000018 	.word	0x00000018
     fa4:	00000064 	.word	0x00000064
     fa8:	0000005c 	.word	0x0000005c
     fac:	00000068 	.word	0x00000068
     fb0:	00000020 	.word	0x00000020

00000fb4 <disp_msg>:
     fb4:	e92d41f0 	push	{r4, r5, r6, r7, r8, lr}
     fb8:	e1a06000 	mov	r6, r0
     fbc:	e59fc118 	ldr	ip, [pc, #280]	; 10dc <disp_msg+0x128>
     fc0:	e1a05000 	mov	r5, r0
     fc4:	e1a02006 	mov	r2, r6
     fc8:	e2800005 	add	r0, r0, #5
     fcc:	e3a03000 	mov	r3, #0
     fd0:	e4d21001 	ldrb	r1, [r2], #1
     fd4:	e0233001 	eor	r3, r3, r1
     fd8:	e1520000 	cmp	r2, r0
     fdc:	e7dc3003 	ldrb	r3, [ip, r3]
     fe0:	1afffffa 	bne	fd0 <disp_msg+0x1c>
     fe4:	e59f80f4 	ldr	r8, [pc, #244]	; 10e0 <disp_msg+0x12c>
     fe8:	e3834001 	orr	r4, r3, #1
     fec:	e2867006 	add	r7, r6, #6
     ff0:	e4d51001 	ldrb	r1, [r5], #1
     ff4:	e1a00008 	mov	r0, r8
     ff8:	ebfffffe 	bl	0 <printf>
     ffc:	e1570005 	cmp	r7, r5
    1000:	1afffffa 	bne	ff0 <disp_msg+0x3c>
    1004:	e5d61005 	ldrb	r1, [r6, #5]
    1008:	e59f20d4 	ldr	r2, [pc, #212]	; 10e4 <disp_msg+0x130>
    100c:	e59f30d4 	ldr	r3, [pc, #212]	; 10e8 <disp_msg+0x134>
    1010:	e1510004 	cmp	r1, r4
    1014:	11a01002 	movne	r1, r2
    1018:	01a01003 	moveq	r1, r3
    101c:	e59f00c8 	ldr	r0, [pc, #200]	; 10ec <disp_msg+0x138>
    1020:	ebfffffe 	bl	0 <printf>
    1024:	e5d62000 	ldrb	r2, [r6]
    1028:	e59f00c0 	ldr	r0, [pc, #192]	; 10f0 <disp_msg+0x13c>
    102c:	e5963001 	ldr	r3, [r6, #1]
    1030:	e3120040 	tst	r2, #64	; 0x40
    1034:	e59f10b8 	ldr	r1, [pc, #184]	; 10f4 <disp_msg+0x140>
    1038:	e202203f 	and	r2, r2, #63	; 0x3f
    103c:	01a01000 	moveq	r1, r0
    1040:	e6bf3f33 	rev	r3, r3
    1044:	e59f00ac 	ldr	r0, [pc, #172]	; 10f8 <disp_msg+0x144>
    1048:	ebfffffe 	bl	0 <printf>
    104c:	e5d63000 	ldrb	r3, [r6]
    1050:	e203203f 	and	r2, r3, #63	; 0x3f
    1054:	e3520034 	cmp	r2, #52	; 0x34
    1058:	0a00000c 	beq	1090 <disp_msg+0xdc>
    105c:	e3520035 	cmp	r2, #53	; 0x35
    1060:	0a000002 	beq	1070 <disp_msg+0xbc>
    1064:	e3a0000a 	mov	r0, #10
    1068:	e8bd41f0 	pop	{r4, r5, r6, r7, r8, lr}
    106c:	eafffffe 	b	0 <putchar>
    1070:	e3130040 	tst	r3, #64	; 0x40
    1074:	1a000013 	bne	10c8 <disp_msg+0x114>
    1078:	e5d61003 	ldrb	r1, [r6, #3]
    107c:	e59f0078 	ldr	r0, [pc, #120]	; 10fc <disp_msg+0x148>
    1080:	ebfffffe 	bl	0 <printf>
    1084:	e3a0000a 	mov	r0, #10
    1088:	e8bd41f0 	pop	{r4, r5, r6, r7, r8, lr}
    108c:	eafffffe 	b	0 <putchar>
    1090:	e3130040 	tst	r3, #64	; 0x40
    1094:	0a000004 	beq	10ac <disp_msg+0xf8>
    1098:	e1a00006 	mov	r0, r6
    109c:	ebfffffe 	bl	e18 <disp_cmd52>
    10a0:	e5d63000 	ldrb	r3, [r6]
    10a4:	e203203f 	and	r2, r3, #63	; 0x3f
    10a8:	eaffffeb 	b	105c <disp_msg+0xa8>
    10ac:	e5d62004 	ldrb	r2, [r6, #4]
    10b0:	e5d61003 	ldrb	r1, [r6, #3]
    10b4:	e59f0044 	ldr	r0, [pc, #68]	; 1100 <disp_msg+0x14c>
    10b8:	ebfffffe 	bl	0 <printf>
    10bc:	e5d63000 	ldrb	r3, [r6]
    10c0:	e203203f 	and	r2, r3, #63	; 0x3f
    10c4:	eaffffe4 	b	105c <disp_msg+0xa8>
    10c8:	e1a00006 	mov	r0, r6
    10cc:	ebfffffe 	bl	ee8 <disp_cmd53>
    10d0:	e3a0000a 	mov	r0, #10
    10d4:	e8bd41f0 	pop	{r4, r5, r6, r7, r8, lr}
    10d8:	eafffffe 	b	0 <putchar>
	...
    10e4:	0000000c 	.word	0x0000000c
    10e8:	00000008 	.word	0x00000008
    10ec:	0000007c 	.word	0x0000007c
    10f0:	00000078 	.word	0x00000078
    10f4:	00000074 	.word	0x00000074
    10f8:	00000080 	.word	0x00000080
    10fc:	00000090 	.word	0x00000090
    1100:	00000044 	.word	0x00000044

00001104 <disp_rsp53>:
    1104:	e5d01003 	ldrb	r1, [r0, #3]
    1108:	e59f0000 	ldr	r0, [pc]	; 1110 <disp_rsp53+0xc>
    110c:	eafffffe 	b	0 <printf>
    1110:	00000090 	.word	0x00000090

00001114 <log_enable>:
    1114:	e59f3004 	ldr	r3, [pc, #4]	; 1120 <log_enable+0xc>
    1118:	e5830000 	str	r0, [r3]
    111c:	e12fff1e 	bx	lr
    1120:	00000000 	.word	0x00000000

00001124 <log_incr>:
    1124:	e59f0060 	ldr	r0, [pc, #96]	; 118c <log_incr+0x68>
    1128:	e92d00f0 	push	{r4, r5, r6, r7}
    112c:	e5902000 	ldr	r2, [r0]
    1130:	e59f4058 	ldr	r4, [pc, #88]	; 1190 <log_incr+0x6c>
    1134:	e2822001 	add	r2, r2, #1
    1138:	e59f1054 	ldr	r1, [pc, #84]	; 1194 <log_incr+0x70>
    113c:	e0c76492 	smull	r6, r7, r2, r4
    1140:	e591c000 	ldr	ip, [r1]
    1144:	e1a03fc2 	asr	r3, r2, #31
    1148:	e0633247 	rsb	r3, r3, r7, asr #4
    114c:	e0833103 	add	r3, r3, r3, lsl #2
    1150:	e0833103 	add	r3, r3, r3, lsl #2
    1154:	e0423083 	sub	r3, r2, r3, lsl #1
    1158:	e153000c 	cmp	r3, ip
    115c:	e5803000 	str	r3, [r0]
    1160:	1a000007 	bne	1184 <log_incr+0x60>
    1164:	e2833001 	add	r3, r3, #1
    1168:	e0c54493 	smull	r4, r5, r3, r4
    116c:	e1a02fc3 	asr	r2, r3, #31
    1170:	e0622245 	rsb	r2, r2, r5, asr #4
    1174:	e0822102 	add	r2, r2, r2, lsl #2
    1178:	e0822102 	add	r2, r2, r2, lsl #2
    117c:	e0433082 	sub	r3, r3, r2, lsl #1
    1180:	e5813000 	str	r3, [r1]
    1184:	e8bd00f0 	pop	{r4, r5, r6, r7}
    1188:	e12fff1e 	bx	lr
    118c:	00000000 	.word	0x00000000
    1190:	51eb851f 	.word	0x51eb851f
    1194:	00000000 	.word	0x00000000

00001198 <log_msg>:
    1198:	e59f300c 	ldr	r3, [pc, #12]	; 11ac <log_msg+0x14>
    119c:	e5933000 	ldr	r3, [r3]
    11a0:	e3530000 	cmp	r3, #0
    11a4:	012fff1e 	bxeq	lr
    11a8:	eafffb94 	b	0 <log_msg.part.2>
    11ac:	00000000 	.word	0x00000000

000011b0 <log_data>:
    11b0:	e59f30c8 	ldr	r3, [pc, #200]	; 1280 <log_data+0xd0>
    11b4:	e5933000 	ldr	r3, [r3]
    11b8:	e3530001 	cmp	r3, #1
    11bc:	d12fff1e 	bxle	lr
    11c0:	e1a0c001 	mov	ip, r1
    11c4:	e92d41f0 	push	{r4, r5, r6, r7, r8, lr}
    11c8:	e35c0000 	cmp	ip, #0
    11cc:	e59f40b0 	ldr	r4, [pc, #176]	; 1284 <log_data+0xd4>
    11d0:	e28c30ff 	add	r3, ip, #255	; 0xff
    11d4:	a1a0300c 	movge	r3, ip
    11d8:	e5945000 	ldr	r5, [r4]
    11dc:	e1a03443 	asr	r3, r3, #8
    11e0:	e59fe0a0 	ldr	lr, [pc, #160]	; 1288 <log_data+0xd8>
    11e4:	e1e03c83 	mvn	r3, r3, lsl #25
    11e8:	e3520000 	cmp	r2, #0
    11ec:	e1a02185 	lsl	r2, r5, #3
    11f0:	e08e6002 	add	r6, lr, r2
    11f4:	e1a01000 	mov	r1, r0
    11f8:	e1e03ca3 	mvn	r3, r3, lsr #25
    11fc:	13a00040 	movne	r0, #64	; 0x40
    1200:	03a00000 	moveq	r0, #0
    1204:	e1803003 	orr	r3, r0, r3
    1208:	e35c0006 	cmp	ip, #6
    120c:	e2820002 	add	r0, r2, #2
    1210:	e7ce3185 	strb	r3, [lr, r5, lsl #3]
    1214:	b1a0200c 	movlt	r2, ip
    1218:	a3a02006 	movge	r2, #6
    121c:	e5c6c001 	strb	ip, [r6, #1]
    1220:	e08e0000 	add	r0, lr, r0
    1224:	ebfffffe 	bl	0 <memcpy>
    1228:	e59f205c 	ldr	r2, [pc, #92]	; 128c <log_data+0xdc>
    122c:	e2855001 	add	r5, r5, #1
    1230:	e59f1058 	ldr	r1, [pc, #88]	; 1290 <log_data+0xe0>
    1234:	e0c76295 	smull	r6, r7, r5, r2
    1238:	e5910000 	ldr	r0, [r1]
    123c:	e1a03fc5 	asr	r3, r5, #31
    1240:	e0633247 	rsb	r3, r3, r7, asr #4
    1244:	e0833103 	add	r3, r3, r3, lsl #2
    1248:	e0833103 	add	r3, r3, r3, lsl #2
    124c:	e0453083 	sub	r3, r5, r3, lsl #1
    1250:	e1530000 	cmp	r3, r0
    1254:	e5843000 	str	r3, [r4]
    1258:	18bd81f0 	popne	{r4, r5, r6, r7, r8, pc}
    125c:	e2833001 	add	r3, r3, #1
    1260:	e0c54293 	smull	r4, r5, r3, r2
    1264:	e1a02fc3 	asr	r2, r3, #31
    1268:	e0622245 	rsb	r2, r2, r5, asr #4
    126c:	e0822102 	add	r2, r2, r2, lsl #2
    1270:	e0822102 	add	r2, r2, r2, lsl #2
    1274:	e0433082 	sub	r3, r3, r2, lsl #1
    1278:	e5813000 	str	r3, [r1]
    127c:	e8bd81f0 	pop	{r4, r5, r6, r7, r8, pc}
	...
    128c:	51eb851f 	.word	0x51eb851f
    1290:	00000000 	.word	0x00000000

00001294 <sdio_cmd53_write>:
    1294:	e92d40f0 	push	{r4, r5, r6, r7, lr}
    1298:	e200e007 	and	lr, r0, #7
    129c:	e1a007c1 	asr	r0, r1, #15
    12a0:	e201c07f 	and	ip, r1, #127	; 0x7f
    12a4:	e1a05003 	mov	r5, r3
    12a8:	e2000003 	and	r0, r0, #3
    12ac:	e1a03443 	asr	r3, r3, #8
    12b0:	e24dd014 	sub	sp, sp, #20
    12b4:	e180020e 	orr	r0, r0, lr, lsl #4
    12b8:	e2033001 	and	r3, r3, #1
    12bc:	e183308c 	orr	r3, r3, ip, lsl #1
    12c0:	e3800084 	orr	r0, r0, #132	; 0x84
    12c4:	e28d7010 	add	r7, sp, #16
    12c8:	e1a013c1 	asr	r1, r1, #7
    12cc:	e3a04000 	mov	r4, #0
    12d0:	e5cd0009 	strb	r0, [sp, #9]
    12d4:	e5cd300b 	strb	r3, [sp, #11]
    12d8:	e3a00002 	mov	r0, #2
    12dc:	e3a03075 	mov	r3, #117	; 0x75
    12e0:	e1a06002 	mov	r6, r2
    12e4:	e3a02001 	mov	r2, #1
    12e8:	e58d400c 	str	r4, [sp, #12]
    12ec:	e5cd3008 	strb	r3, [sp, #8]
    12f0:	e5672003 	strb	r2, [r7, #-3]!
    12f4:	e5cd100a 	strb	r1, [sp, #10]
    12f8:	e5cd500c 	strb	r5, [sp, #12]
    12fc:	ebfffffe 	bl	530 <clk_0>
    1300:	e59f0094 	ldr	r0, [pc, #148]	; 139c <sdio_cmd53_write+0x108>
    1304:	e1a03004 	mov	r3, r4
    1308:	e28d2008 	add	r2, sp, #8
    130c:	e4d21001 	ldrb	r1, [r2], #1
    1310:	e0233001 	eor	r3, r3, r1
    1314:	e1520007 	cmp	r2, r7
    1318:	e7d03003 	ldrb	r3, [r0, r3]
    131c:	1afffffa 	bne	130c <sdio_cmd53_write+0x78>
    1320:	e59f7078 	ldr	r7, [pc, #120]	; 13a0 <sdio_cmd53_write+0x10c>
    1324:	e3833001 	orr	r3, r3, #1
    1328:	e5cd300d 	strb	r3, [sp, #13]
    132c:	e5973000 	ldr	r3, [r7]
    1330:	e3530000 	cmp	r3, #0
    1334:	1a000015 	bne	1390 <sdio_cmd53_write+0xfc>
    1338:	e28d0008 	add	r0, sp, #8
    133c:	e3a01030 	mov	r1, #48	; 0x30
    1340:	ebfffffe 	bl	114 <sdio_cmd_write>
    1344:	e1a02005 	mov	r2, r5
    1348:	e1a01006 	mov	r1, r6
    134c:	e1a0000d 	mov	r0, sp
    1350:	ebfffffe 	bl	6f8 <sdio_rsp_block_write>
    1354:	e1a04000 	mov	r4, r0
    1358:	e3a00010 	mov	r0, #16
    135c:	ebfffffe 	bl	530 <clk_0>
    1360:	e5973000 	ldr	r3, [r7]
    1364:	e3530000 	cmp	r3, #0
    1368:	0a000001 	beq	1374 <sdio_cmd53_write+0xe0>
    136c:	e1a0000d 	mov	r0, sp
    1370:	ebfffb22 	bl	0 <log_msg.part.2>
    1374:	e1a00006 	mov	r0, r6
    1378:	e3a02001 	mov	r2, #1
    137c:	e1a01004 	mov	r1, r4
    1380:	ebfffffe 	bl	11b0 <log_data>
    1384:	e1a00004 	mov	r0, r4
    1388:	e28dd014 	add	sp, sp, #20
    138c:	e8bd80f0 	pop	{r4, r5, r6, r7, pc}
    1390:	e28d0008 	add	r0, sp, #8
    1394:	ebfffb19 	bl	0 <log_msg.part.2>
    1398:	eaffffe6 	b	1338 <sdio_cmd53_write+0xa4>
	...

000013a4 <sdio_bak_write32>:
    13a4:	e92d4030 	push	{r4, r5, lr}
    13a8:	e24dd00c 	sub	sp, sp, #12
    13ac:	e28d4008 	add	r4, sp, #8
    13b0:	e1a05000 	mov	r5, r0
    13b4:	e5241004 	str	r1, [r4, #-4]!
    13b8:	ebfffffe 	bl	98c <sdio_bak_window>
    13bc:	e1a02004 	mov	r2, r4
    13c0:	e3851902 	orr	r1, r5, #32768	; 0x8000
    13c4:	e3a03004 	mov	r3, #4
    13c8:	e3a00001 	mov	r0, #1
    13cc:	ebfffffe 	bl	1294 <sdio_cmd53_write>
    13d0:	e28dd00c 	add	sp, sp, #12
    13d4:	e8bd8030 	pop	{r4, r5, pc}

000013d8 <sdio_cmd53_read>:
    13d8:	e92d40f0 	push	{r4, r5, r6, r7, lr}
    13dc:	e1a05003 	mov	r5, r3
    13e0:	e1a037c1 	asr	r3, r1, #15
    13e4:	e201e07f 	and	lr, r1, #127	; 0x7f
    13e8:	e2000007 	and	r0, r0, #7
    13ec:	e2033003 	and	r3, r3, #3
    13f0:	e1a0c445 	asr	ip, r5, #8
    13f4:	e24dd01c 	sub	sp, sp, #28
    13f8:	e3833004 	orr	r3, r3, #4
    13fc:	e20cc001 	and	ip, ip, #1
    1400:	e1830200 	orr	r0, r3, r0, lsl #4
    1404:	e28d7018 	add	r7, sp, #24
    1408:	e18c308e 	orr	r3, ip, lr, lsl #1
    140c:	e1a013c1 	asr	r1, r1, #7
    1410:	e3a04000 	mov	r4, #0
    1414:	e5cd0011 	strb	r0, [sp, #17]
    1418:	e5cd3013 	strb	r3, [sp, #19]
    141c:	e3a00002 	mov	r0, #2
    1420:	e3a03075 	mov	r3, #117	; 0x75
    1424:	e1a06002 	mov	r6, r2
    1428:	e3a02001 	mov	r2, #1
    142c:	e58d4014 	str	r4, [sp, #20]
    1430:	e5cd3010 	strb	r3, [sp, #16]
    1434:	e5672003 	strb	r2, [r7, #-3]!
    1438:	e5cd1012 	strb	r1, [sp, #18]
    143c:	e5cd5014 	strb	r5, [sp, #20]
    1440:	ebfffffe 	bl	530 <clk_0>
    1444:	e59f00a4 	ldr	r0, [pc, #164]	; 14f0 <sdio_cmd53_read+0x118>
    1448:	e1a03004 	mov	r3, r4
    144c:	e28d2010 	add	r2, sp, #16
    1450:	e4d21001 	ldrb	r1, [r2], #1
    1454:	e0233001 	eor	r3, r3, r1
    1458:	e1520007 	cmp	r2, r7
    145c:	e7d03003 	ldrb	r3, [r0, r3]
    1460:	1afffffa 	bne	1450 <sdio_cmd53_read+0x78>
    1464:	e59f7088 	ldr	r7, [pc, #136]	; 14f4 <sdio_cmd53_read+0x11c>
    1468:	e3833001 	orr	r3, r3, #1
    146c:	e5cd3015 	strb	r3, [sp, #21]
    1470:	e5973000 	ldr	r3, [r7]
    1474:	e3530000 	cmp	r3, #0
    1478:	1a000019 	bne	14e4 <sdio_cmd53_read+0x10c>
    147c:	e28d0010 	add	r0, sp, #16
    1480:	e3a01030 	mov	r1, #48	; 0x30
    1484:	ebfffffe 	bl	114 <sdio_cmd_write>
    1488:	e1a0300d 	mov	r3, sp
    148c:	e1a02005 	mov	r2, r5
    1490:	e1a01006 	mov	r1, r6
    1494:	e28d0008 	add	r0, sp, #8
    1498:	ebfffffe 	bl	2c8 <sdio_rsp_block_read>
    149c:	e1a04000 	mov	r4, r0
    14a0:	e3a00001 	mov	r0, #1
    14a4:	ebfffffe 	bl	530 <clk_0>
    14a8:	e5973000 	ldr	r3, [r7]
    14ac:	e3530000 	cmp	r3, #0
    14b0:	0a000001 	beq	14bc <sdio_cmd53_read+0xe4>
    14b4:	e28d0008 	add	r0, sp, #8
    14b8:	ebfffad0 	bl	0 <log_msg.part.2>
    14bc:	e1cd20d0 	ldrd	r2, [sp]
    14c0:	e1a00006 	mov	r0, r6
    14c4:	e1a01004 	mov	r1, r4
    14c8:	e1923003 	orrs	r3, r2, r3
    14cc:	03a02001 	moveq	r2, #1
    14d0:	13a02000 	movne	r2, #0
    14d4:	ebfffffe 	bl	11b0 <log_data>
    14d8:	e1a00004 	mov	r0, r4
    14dc:	e28dd01c 	add	sp, sp, #28
    14e0:	e8bd80f0 	pop	{r4, r5, r6, r7, pc}
    14e4:	e28d0010 	add	r0, sp, #16
    14e8:	ebfffac4 	bl	0 <log_msg.part.2>
    14ec:	eaffffe2 	b	147c <sdio_cmd53_read+0xa4>
	...

000014f8 <sdio_bak_read32>:
    14f8:	e92d4030 	push	{r4, r5, lr}
    14fc:	e24dd00c 	sub	sp, sp, #12
    1500:	e1a05000 	mov	r5, r0
    1504:	e1a04001 	mov	r4, r1
    1508:	ebfffffe 	bl	98c <sdio_bak_window>
    150c:	e3a03004 	mov	r3, #4
    1510:	e08d2003 	add	r2, sp, r3
    1514:	e3851902 	orr	r1, r5, #32768	; 0x8000
    1518:	e3a00001 	mov	r0, #1
    151c:	ebfffffe 	bl	13d8 <sdio_cmd53_read>
    1520:	e59d3004 	ldr	r3, [sp, #4]
    1524:	e5843000 	str	r3, [r4]
    1528:	e28dd00c 	add	sp, sp, #12
    152c:	e8bd8030 	pop	{r4, r5, pc}

00001530 <sdio_write_blocks>:
    1530:	e92d40f0 	push	{r4, r5, r6, r7, lr}
    1534:	e200e007 	and	lr, r0, #7
    1538:	e1a007c1 	asr	r0, r1, #15
    153c:	e201c07f 	and	ip, r1, #127	; 0x7f
    1540:	e1a06003 	mov	r6, r3
    1544:	e2000003 	and	r0, r0, #3
    1548:	e1a03443 	asr	r3, r3, #8
    154c:	e24dd014 	sub	sp, sp, #20
    1550:	e180020e 	orr	r0, r0, lr, lsl #4
    1554:	e2033001 	and	r3, r3, #1
    1558:	e183308c 	orr	r3, r3, ip, lsl #1
    155c:	e380008c 	orr	r0, r0, #140	; 0x8c
    1560:	e28d7010 	add	r7, sp, #16
    1564:	e1a05002 	mov	r5, r2
    1568:	e3a02001 	mov	r2, #1
    156c:	e1a013c1 	asr	r1, r1, #7
    1570:	e3a04000 	mov	r4, #0
    1574:	e5cd0009 	strb	r0, [sp, #9]
    1578:	e5cd300b 	strb	r3, [sp, #11]
    157c:	e1a00002 	mov	r0, r2
    1580:	e3a03075 	mov	r3, #117	; 0x75
    1584:	e58d400c 	str	r4, [sp, #12]
    1588:	e5cd3008 	strb	r3, [sp, #8]
    158c:	e5672003 	strb	r2, [r7, #-3]!
    1590:	e5cd100a 	strb	r1, [sp, #10]
    1594:	e5cd600c 	strb	r6, [sp, #12]
    1598:	ebfffffe 	bl	530 <clk_0>
    159c:	e59f0168 	ldr	r0, [pc, #360]	; 170c <sdio_write_blocks+0x1dc>
    15a0:	e1a03004 	mov	r3, r4
    15a4:	e28d2008 	add	r2, sp, #8
    15a8:	e4d21001 	ldrb	r1, [r2], #1
    15ac:	e0233001 	eor	r3, r3, r1
    15b0:	e1520007 	cmp	r2, r7
    15b4:	e7d03003 	ldrb	r3, [r0, r3]
    15b8:	1afffffa 	bne	15a8 <sdio_write_blocks+0x78>
    15bc:	e59f714c 	ldr	r7, [pc, #332]	; 1710 <sdio_write_blocks+0x1e0>
    15c0:	e3833001 	orr	r3, r3, #1
    15c4:	e5cd300d 	strb	r3, [sp, #13]
    15c8:	e5973000 	ldr	r3, [r7]
    15cc:	e3530000 	cmp	r3, #0
    15d0:	1a000047 	bne	16f4 <sdio_write_blocks+0x1c4>
    15d4:	e28d0008 	add	r0, sp, #8
    15d8:	e3a01030 	mov	r1, #48	; 0x30
    15dc:	ebfffffe 	bl	114 <sdio_cmd_write>
    15e0:	e1a0000d 	mov	r0, sp
    15e4:	e3a02023 	mov	r2, #35	; 0x23
    15e8:	e3a01030 	mov	r1, #48	; 0x30
    15ec:	ebfffffe 	bl	1a0 <sdio_rsp_read>
    15f0:	e2504000 	subs	r4, r0, #0
    15f4:	0a000039 	beq	16e0 <sdio_write_blocks+0x1b0>
    15f8:	e5973000 	ldr	r3, [r7]
    15fc:	e3530000 	cmp	r3, #0
    1600:	1a00003e 	bne	1700 <sdio_write_blocks+0x1d0>
    1604:	e3a0200f 	mov	r2, #15
    1608:	e3a01004 	mov	r1, #4
    160c:	e3a00024 	mov	r0, #36	; 0x24
    1610:	ebfffffe 	bl	0 <gpio_write>
    1614:	e3a01001 	mov	r1, #1
    1618:	e3a00024 	mov	r0, #36	; 0x24
    161c:	ebfffffe 	bl	0 <gpio_mode>
    1620:	e3a01001 	mov	r1, #1
    1624:	e3a00025 	mov	r0, #37	; 0x25
    1628:	ebfffffe 	bl	0 <gpio_mode>
    162c:	e3a01001 	mov	r1, #1
    1630:	e3a00026 	mov	r0, #38	; 0x26
    1634:	ebfffffe 	bl	0 <gpio_mode>
    1638:	e3a01001 	mov	r1, #1
    163c:	e3a00027 	mov	r0, #39	; 0x27
    1640:	ebfffffe 	bl	0 <gpio_mode>
    1644:	e3560000 	cmp	r6, #0
    1648:	d3a04001 	movle	r4, #1
    164c:	da000017 	ble	16b0 <sdio_write_blocks+0x180>
    1650:	e2866001 	add	r6, r6, #1
    1654:	e3a04001 	mov	r4, #1
    1658:	e3a01040 	mov	r1, #64	; 0x40
    165c:	e1a00005 	mov	r0, r5
    1660:	ebfffffe 	bl	5d4 <sdio_block_out>
    1664:	e3a02001 	mov	r2, #1
    1668:	e3a01040 	mov	r1, #64	; 0x40
    166c:	e1a00005 	mov	r0, r5
    1670:	ebfffffe 	bl	11b0 <log_data>
    1674:	e3a02024 	mov	r2, #36	; 0x24
    1678:	e3a01008 	mov	r1, #8
    167c:	e1a0000d 	mov	r0, sp
    1680:	ebfffffe 	bl	1a0 <sdio_rsp_read>
    1684:	e5973000 	ldr	r3, [r7]
    1688:	e2844001 	add	r4, r4, #1
    168c:	e3530001 	cmp	r3, #1
    1690:	da000001 	ble	169c <sdio_write_blocks+0x16c>
    1694:	e5dd0000 	ldrb	r0, [sp]
    1698:	ebfffa7b 	bl	8c <log_data_ack.part.3>
    169c:	e3a00002 	mov	r0, #2
    16a0:	ebfffffe 	bl	530 <clk_0>
    16a4:	e1540006 	cmp	r4, r6
    16a8:	e2855040 	add	r5, r5, #64	; 0x40
    16ac:	1affffe9 	bne	1658 <sdio_write_blocks+0x128>
    16b0:	e3a01000 	mov	r1, #0
    16b4:	e3a00024 	mov	r0, #36	; 0x24
    16b8:	ebfffffe 	bl	0 <gpio_mode>
    16bc:	e3a01000 	mov	r1, #0
    16c0:	e3a00025 	mov	r0, #37	; 0x25
    16c4:	ebfffffe 	bl	0 <gpio_mode>
    16c8:	e3a01000 	mov	r1, #0
    16cc:	e3a00026 	mov	r0, #38	; 0x26
    16d0:	ebfffffe 	bl	0 <gpio_mode>
    16d4:	e3a01000 	mov	r1, #0
    16d8:	e3a00027 	mov	r0, #39	; 0x27
    16dc:	ebfffffe 	bl	0 <gpio_mode>
    16e0:	e3a00001 	mov	r0, #1
    16e4:	ebfffffe 	bl	530 <clk_0>
    16e8:	e1a00004 	mov	r0, r4
    16ec:	e28dd014 	add	sp, sp, #20
    16f0:	e8bd80f0 	pop	{r4, r5, r6, r7, pc}
    16f4:	e28d0008 	add	r0, sp, #8
    16f8:	ebfffa40 	bl	0 <log_msg.part.2>
    16fc:	eaffffb4 	b	15d4 <sdio_write_blocks+0xa4>
    1700:	e1a0000d 	mov	r0, sp
    1704:	ebfffa3d 	bl	0 <log_msg.part.2>
    1708:	eaffffbd 	b	1604 <sdio_write_blocks+0xd4>
	...

00001714 <log_data_ack>:
    1714:	e59f300c 	ldr	r3, [pc, #12]	; 1728 <log_data_ack+0x14>
    1718:	e5933000 	ldr	r3, [r3]
    171c:	e3530001 	cmp	r3, #1
    1720:	d12fff1e 	bxle	lr
    1724:	eafffa58 	b	8c <log_data_ack.part.3>
    1728:	00000000 	.word	0x00000000

0000172c <disp_log>:
    172c:	e92d4ff8 	push	{r3, r4, r5, r6, r7, r8, r9, sl, fp, lr}
    1730:	e59f4118 	ldr	r4, [pc, #280]	; 1850 <disp_log+0x124>
    1734:	e59f6118 	ldr	r6, [pc, #280]	; 1854 <disp_log+0x128>
    1738:	e5940000 	ldr	r0, [r4]
    173c:	e5963000 	ldr	r3, [r6]
    1740:	e1530000 	cmp	r3, r0
    1744:	0a00001b 	beq	17b8 <disp_log+0x8c>
    1748:	e59f5108 	ldr	r5, [pc, #264]	; 1858 <disp_log+0x12c>
    174c:	e59f9108 	ldr	r9, [pc, #264]	; 185c <disp_log+0x130>
    1750:	e59f7108 	ldr	r7, [pc, #264]	; 1860 <disp_log+0x134>
    1754:	ea000011 	b	17a0 <disp_log+0x74>
    1758:	e35800fe 	cmp	r8, #254	; 0xfe
    175c:	0a00001b 	beq	17d0 <disp_log+0xa4>
    1760:	e3180080 	tst	r8, #128	; 0x80
    1764:	e0850180 	add	r0, r5, r0, lsl #3
    1768:	1a00001d 	bne	17e4 <disp_log+0xb8>
    176c:	ebfffffe 	bl	fb4 <disp_msg>
    1770:	e5943000 	ldr	r3, [r4]
    1774:	e5962000 	ldr	r2, [r6]
    1778:	e2833001 	add	r3, r3, #1
    177c:	e0cba793 	smull	sl, fp, r3, r7
    1780:	e1a00fc3 	asr	r0, r3, #31
    1784:	e060024b 	rsb	r0, r0, fp, asr #4
    1788:	e0800100 	add	r0, r0, r0, lsl #2
    178c:	e0800100 	add	r0, r0, r0, lsl #2
    1790:	e0430080 	sub	r0, r3, r0, lsl #1
    1794:	e1500002 	cmp	r0, r2
    1798:	e5840000 	str	r0, [r4]
    179c:	0a000005 	beq	17b8 <disp_log+0x8c>
    17a0:	e7d58180 	ldrb	r8, [r5, r0, lsl #3]
    17a4:	e3580000 	cmp	r8, #0
    17a8:	1affffea 	bne	1758 <disp_log+0x2c>
    17ac:	e59f00b0 	ldr	r0, [pc, #176]	; 1864 <disp_log+0x138>
    17b0:	ebfffffe 	bl	0 <puts>
    17b4:	eaffffed 	b	1770 <disp_log+0x44>
    17b8:	e3a0000a 	mov	r0, #10
    17bc:	ebfffffe 	bl	0 <putchar>
    17c0:	ebfffffe 	bl	0 <__getreent>
    17c4:	e8bd4ff8 	pop	{r3, r4, r5, r6, r7, r8, r9, sl, fp, lr}
    17c8:	e5900008 	ldr	r0, [r0, #8]
    17cc:	eafffffe 	b	0 <fflush>
    17d0:	e0853180 	add	r3, r5, r0, lsl #3
    17d4:	e59f008c 	ldr	r0, [pc, #140]	; 1868 <disp_log+0x13c>
    17d8:	e5d31001 	ldrb	r1, [r3, #1]
    17dc:	ebfffffe 	bl	0 <printf>
    17e0:	eaffffe2 	b	1770 <disp_log+0x44>
    17e4:	e5d02001 	ldrb	r2, [r0, #1]
    17e8:	e208303f 	and	r3, r8, #63	; 0x3f
    17ec:	e59f0078 	ldr	r0, [pc, #120]	; 186c <disp_log+0x140>
    17f0:	e082b403 	add	fp, r2, r3, lsl #8
    17f4:	e1a0100b 	mov	r1, fp
    17f8:	ebfffffe 	bl	0 <printf>
    17fc:	e594a000 	ldr	sl, [r4]
    1800:	e35b0006 	cmp	fp, #6
    1804:	b1a0300b 	movlt	r3, fp
    1808:	a3a03006 	movge	r3, #6
    180c:	e085a18a 	add	sl, r5, sl, lsl #3
    1810:	e35b0000 	cmp	fp, #0
    1814:	e28aa002 	add	sl, sl, #2
    1818:	0a000005 	beq	1834 <disp_log+0x108>
    181c:	e08ab003 	add	fp, sl, r3
    1820:	e4da1001 	ldrb	r1, [sl], #1
    1824:	e1a00009 	mov	r0, r9
    1828:	ebfffffe 	bl	0 <printf>
    182c:	e15a000b 	cmp	sl, fp
    1830:	1afffffa 	bne	1820 <disp_log+0xf4>
    1834:	e59f3034 	ldr	r3, [pc, #52]	; 1870 <disp_log+0x144>
    1838:	e59f2034 	ldr	r2, [pc, #52]	; 1874 <disp_log+0x148>
    183c:	e3180040 	tst	r8, #64	; 0x40
    1840:	11a00003 	movne	r0, r3
    1844:	01a00002 	moveq	r0, r2
    1848:	ebfffffe 	bl	0 <puts>
    184c:	eaffffc7 	b	1770 <disp_log+0x44>
	...
    1860:	51eb851f 	.word	0x51eb851f
    1864:	0000009c 	.word	0x0000009c
    1868:	000000a0 	.word	0x000000a0
    186c:	000000ac 	.word	0x000000ac
    1870:	00000008 	.word	0x00000008
    1874:	0000000c 	.word	0x0000000c

00001878 <disp_log_break>:
    1878:	e92d4010 	push	{r4, lr}
    187c:	ebfffffe 	bl	172c <disp_log>
    1880:	e8bd4010 	pop	{r4, lr}
    1884:	eafffffe 	b	0 <gdb_break>

00001888 <osc_init>:
    1888:	e59f301c 	ldr	r3, [pc, #28]	; 18ac <osc_init+0x24>
    188c:	e59f101c 	ldr	r1, [pc, #28]	; 18b0 <osc_init+0x28>
    1890:	e59f201c 	ldr	r2, [pc, #28]	; 18b4 <osc_init+0x2c>
    1894:	e5831084 	str	r1, [r3, #132]	; 0x84
    1898:	e5832080 	str	r2, [r3, #128]	; 0x80
    189c:	e3a01004 	mov	r1, #4
    18a0:	e3a02000 	mov	r2, #0
    18a4:	e3a0002b 	mov	r0, #43	; 0x2b
    18a8:	eafffffe 	b	0 <gpio_set>
    18ac:	20101000 	.word	0x20101000
    18b0:	5a249f00 	.word	0x5a249f00
    18b4:	5a000291 	.word	0x5a000291

zxjoin.o:     file format elf32-littlearm


Disassembly of section .text:

00000000 <disp_ssid>:
   0:	e5d01000 	ldrb	r1, [r0]
   4:	e3510000 	cmp	r1, #0
   8:	0a000010 	beq	50 <disp_ssid+0x50>
   c:	e92d4070 	push	{r4, r5, r6, lr}
  10:	e1a04000 	mov	r4, r0
  14:	e5d00001 	ldrb	r0, [r0, #1]
  18:	e3500000 	cmp	r0, #0
  1c:	0a000008 	beq	44 <disp_ssid+0x44>
  20:	e3510020 	cmp	r1, #32
  24:	ca00000b 	bgt	58 <disp_ssid+0x58>
  28:	e0845001 	add	r5, r4, r1
  2c:	e2844001 	add	r4, r4, #1
  30:	ebfffffe 	bl	0 <putchar>
  34:	e1540005 	cmp	r4, r5
  38:	08bd8070 	popeq	{r4, r5, r6, pc}
  3c:	e5f40001 	ldrb	r0, [r4, #1]!
  40:	eafffffa 	b	30 <disp_ssid+0x30>
  44:	e59f0018 	ldr	r0, [pc, #24]	; 64 <disp_ssid+0x64>
  48:	e8bd4070 	pop	{r4, r5, r6, lr}
  4c:	eafffffe 	b	0 <printf>
  50:	e59f000c 	ldr	r0, [pc, #12]	; 64 <disp_ssid+0x64>
  54:	eafffffe 	b	0 <printf>
  58:	e59f0008 	ldr	r0, [pc, #8]	; 68 <disp_ssid+0x68>
  5c:	e8bd4070 	pop	{r4, r5, r6, lr}
  60:	eafffffe 	b	0 <printf>
  64:	00000000 	.word	0x00000000
  68:	0000000c 	.word	0x0000000c

0000006c <disp_mac_addr>:
  6c:	e92d47f0 	push	{r4, r5, r6, r7, r8, r9, sl, lr}
  70:	e1a06000 	mov	r6, r0
  74:	e2404001 	sub	r4, r0, #1
  78:	e59f9040 	ldr	r9, [pc, #64]	; c0 <disp_mac_addr+0x54>
  7c:	e59f7040 	ldr	r7, [pc, #64]	; c4 <disp_mac_addr+0x58>
  80:	e59f8040 	ldr	r8, [pc, #64]	; c8 <disp_mac_addr+0x5c>
  84:	ea000004 	b	9c <disp_mac_addr+0x30>
  88:	e2444004 	sub	r4, r4, #4
  8c:	ebfffffe 	bl	0 <printf>
  90:	e1540006 	cmp	r4, r6
  94:	08bd87f0 	popeq	{r4, r5, r6, r7, r8, r9, sl, pc}
  98:	e1a04005 	mov	r4, r5
  9c:	e2845001 	add	r5, r4, #1
  a0:	e1550006 	cmp	r5, r6
  a4:	e1a01008 	mov	r1, r8
  a8:	e1a00007 	mov	r0, r7
  ac:	e5d42001 	ldrb	r2, [r4, #1]
  b0:	1afffff4 	bne	88 <disp_mac_addr+0x1c>
  b4:	e1a01009 	mov	r1, r9
  b8:	ebfffffe 	bl	0 <printf>
  bc:	eafffff5 	b	98 <disp_mac_addr+0x2c>
  c0:	0000002c 	.word	0x0000002c
  c4:	00000024 	.word	0x00000024
  c8:	00000020 	.word	0x00000020

000000cc <disp_block>:
  cc:	e92d41f0 	push	{r4, r5, r6, r7, r8, lr}
  d0:	e2516000 	subs	r6, r1, #0
  d4:	d8bd81f0 	pople	{r4, r5, r6, r7, r8, pc}
  d8:	e1a07000 	mov	r7, r0
  dc:	e3a05000 	mov	r5, #0
  e0:	e0464005 	sub	r4, r6, r5
  e4:	e3540020 	cmp	r4, #32
  e8:	a3a04020 	movge	r4, #32
  ec:	e1a01004 	mov	r1, r4
  f0:	e0870005 	add	r0, r7, r5
  f4:	ebfffffe 	bl	0 <disp_bytes>
  f8:	ebfffffe 	bl	0 <__getreent>
  fc:	e0855004 	add	r5, r5, r4
 100:	e5900008 	ldr	r0, [r0, #8]
 104:	ebfffffe 	bl	0 <fflush>
 108:	e1560005 	cmp	r6, r5
 10c:	e3a0000a 	mov	r0, #10
 110:	d8bd81f0 	pople	{r4, r5, r6, r7, r8, pc}
 114:	ebfffffe 	bl	0 <putchar>
 118:	eafffff0 	b	e0 <disp_block+0x14>

0000011c <gdb_break>:
 11c:	e12fff1e 	bx	lr

00000120 <firm_open_read>:
 120:	e59f3004 	ldr	r3, [pc, #4]	; 12c <firm_open_read+0xc>
 124:	e5830000 	str	r0, [r3]
 128:	e12fff1e 	bx	lr
 12c:	00000000 	.word	0x00000000

00000130 <firm_read>:
 130:	e92d4070 	push	{r4, r5, r6, lr}
 134:	e1a05001 	mov	r5, r1
 138:	e59f4020 	ldr	r4, [pc, #32]	; 160 <firm_read+0x30>
 13c:	e59f3020 	ldr	r3, [pc, #32]	; 164 <firm_read+0x34>
 140:	e1a02005 	mov	r2, r5
 144:	e5941000 	ldr	r1, [r4]
 148:	e0831001 	add	r1, r3, r1
 14c:	ebfffffe 	bl	0 <memcpy>
 150:	e5941000 	ldr	r1, [r4]
 154:	e0811005 	add	r1, r1, r5
 158:	e5841000 	str	r1, [r4]
 15c:	e8bd8070 	pop	{r4, r5, r6, pc}
	...

00000168 <firm_close>:
 168:	e12fff1e 	bx	lr

0000016c <write_firmware>:
 16c:	e92d4ff8 	push	{r3, r4, r5, r6, r7, r8, r9, sl, fp, lr}
 170:	e3a03000 	mov	r3, #0
 174:	e59f70c4 	ldr	r7, [pc, #196]	; 240 <write_firmware+0xd4>
 178:	e59fa0c4 	ldr	sl, [pc, #196]	; 244 <write_firmware+0xd8>
 17c:	e59f60c4 	ldr	r6, [pc, #196]	; 248 <write_firmware+0xdc>
 180:	e1a05003 	mov	r5, r3
 184:	e5873000 	str	r3, [r7]
 188:	ea000011 	b	1d4 <write_firmware+0x68>
 18c:	e5974000 	ldr	r4, [r7]
 190:	e1a0830b 	lsl	r8, fp, #6
 194:	e08a1004 	add	r1, sl, r4
 198:	e1a02008 	mov	r2, r8
 19c:	ebfffffe 	bl	0 <memcpy>
 1a0:	e0844008 	add	r4, r4, r8
 1a4:	e1a0300b 	mov	r3, fp
 1a8:	e2891902 	add	r1, r9, #32768	; 0x8000
 1ac:	e1a02006 	mov	r2, r6
 1b0:	e3a00001 	mov	r0, #1
 1b4:	e5874000 	str	r4, [r7]
 1b8:	ebfffffe 	bl	0 <sdio_write_blocks>
 1bc:	e3500000 	cmp	r0, #0
 1c0:	0a00001c 	beq	238 <write_firmware+0xcc>
 1c4:	e59f3080 	ldr	r3, [pc, #128]	; 24c <write_firmware+0xe0>
 1c8:	e0855008 	add	r5, r5, r8
 1cc:	e1550003 	cmp	r5, r3
 1d0:	ca000018 	bgt	238 <write_firmware+0xcc>
 1d4:	e1a00005 	mov	r0, r5
 1d8:	ebfffffe 	bl	0 <sdio_bak_addr>
 1dc:	e59f406c 	ldr	r4, [pc, #108]	; 250 <write_firmware+0xe4>
 1e0:	e0444005 	sub	r4, r4, r5
 1e4:	e3540901 	cmp	r4, #16384	; 0x4000
 1e8:	23a04901 	movcs	r4, #16384	; 0x4000
 1ec:	e1b0b344 	asrs	fp, r4, #6
 1f0:	e1a09000 	mov	r9, r0
 1f4:	e1a00006 	mov	r0, r6
 1f8:	1affffe3 	bne	18c <write_firmware+0x20>
 1fc:	e5978000 	ldr	r8, [r7]
 200:	e1a02004 	mov	r2, r4
 204:	e08a1008 	add	r1, sl, r8
 208:	ebfffffe 	bl	0 <memcpy>
 20c:	e0848008 	add	r8, r4, r8
 210:	e1a03004 	mov	r3, r4
 214:	e2891902 	add	r1, r9, #32768	; 0x8000
 218:	e1a02006 	mov	r2, r6
 21c:	e3a00001 	mov	r0, #1
 220:	e5878000 	str	r8, [r7]
 224:	ebfffffe 	bl	0 <sdio_cmd53_write>
 228:	e59f301c 	ldr	r3, [pc, #28]	; 24c <write_firmware+0xe0>
 22c:	e0855004 	add	r5, r5, r4
 230:	e1550003 	cmp	r5, r3
 234:	daffffe6 	ble	1d4 <write_firmware+0x68>
 238:	e1a00005 	mov	r0, r5
 23c:	e8bd8ff8 	pop	{r3, r4, r5, r6, r7, r8, r9, sl, fp, pc}
	...
 24c:	0005ee83 	.word	0x0005ee83
 250:	0005ee84 	.word	0x0005ee84

00000254 <write_nvram>:
 254:	e92d41f0 	push	{r4, r5, r6, r7, r8, lr}
 258:	e3a0091e 	mov	r0, #491520	; 0x78000
 25c:	e59f6050 	ldr	r6, [pc, #80]	; 2b4 <write_nvram+0x60>
 260:	ebfffffe 	bl	0 <sdio_bak_window>
 264:	e3a04000 	mov	r4, #0
 268:	e5963000 	ldr	r3, [r6]
 26c:	e3530000 	cmp	r3, #0
 270:	da00000d 	ble	2ac <write_nvram+0x58>
 274:	e2867004 	add	r7, r6, #4
 278:	e0435004 	sub	r5, r3, r4
 27c:	e3550040 	cmp	r5, #64	; 0x40
 280:	a3a05040 	movge	r5, #64	; 0x40
 284:	e2841cfd 	add	r1, r4, #64768	; 0xfd00
 288:	e1a03005 	mov	r3, r5
 28c:	e0872004 	add	r2, r7, r4
 290:	e2811054 	add	r1, r1, #84	; 0x54
 294:	e3a00001 	mov	r0, #1
 298:	ebfffffe 	bl	0 <sdio_cmd53_write>
 29c:	e5963000 	ldr	r3, [r6]
 2a0:	e0844005 	add	r4, r4, r5
 2a4:	e1530004 	cmp	r3, r4
 2a8:	cafffff2 	bgt	278 <write_nvram+0x24>
 2ac:	e1a00004 	mov	r0, r4
 2b0:	e8bd81f0 	pop	{r4, r5, r6, r7, r8, pc}
 2b4:	00000000 	.word	0x00000000

000002b8 <sdio_init>:
 2b8:	e92d4030 	push	{r4, r5, lr}
 2bc:	e24ddf89 	sub	sp, sp, #548	; 0x224
 2c0:	e3a04000 	mov	r4, #0
 2c4:	e1a03004 	mov	r3, r4
 2c8:	e1a02004 	mov	r2, r4
 2cc:	e3a01006 	mov	r1, #6
 2d0:	e58d4004 	str	r4, [sp, #4]
 2d4:	e58d4000 	str	r4, [sp]
 2d8:	e1a00004 	mov	r0, r4
 2dc:	ebfffffe 	bl	0 <sdio_cmd52>
 2e0:	e59f0654 	ldr	r0, [pc, #1620]	; 93c <sdio_init+0x684>
 2e4:	ebfffffe 	bl	0 <usdelay>
 2e8:	e3a03001 	mov	r3, #1
 2ec:	e3a02008 	mov	r2, #8
 2f0:	e3a01006 	mov	r1, #6
 2f4:	e58d4004 	str	r4, [sp, #4]
 2f8:	e58d4000 	str	r4, [sp]
 2fc:	e1a00004 	mov	r0, r4
 300:	ebfffffe 	bl	0 <sdio_cmd52>
 304:	e59f0630 	ldr	r0, [pc, #1584]	; 93c <sdio_init+0x684>
 308:	ebfffffe 	bl	0 <usdelay>
 30c:	e1a02004 	mov	r2, r4
 310:	e1a01004 	mov	r1, r4
 314:	e1a00004 	mov	r0, r4
 318:	ebfffffe 	bl	0 <sdio_cmd>
 31c:	e1a02004 	mov	r2, r4
 320:	e59f1618 	ldr	r1, [pc, #1560]	; 940 <sdio_init+0x688>
 324:	e3a00008 	mov	r0, #8
 328:	ebfffffe 	bl	0 <sdio_cmd>
 32c:	e1a02004 	mov	r2, r4
 330:	e1a01004 	mov	r1, r4
 334:	e3a00005 	mov	r0, #5
 338:	ebfffffe 	bl	0 <sdio_cmd>
 33c:	e1a02004 	mov	r2, r4
 340:	e3a01602 	mov	r1, #2097152	; 0x200000
 344:	e3a00005 	mov	r0, #5
 348:	ebfffffe 	bl	0 <sdio_cmd>
 34c:	e28d2010 	add	r2, sp, #16
 350:	e1a01004 	mov	r1, r4
 354:	e3a00003 	mov	r0, #3
 358:	ebfffffe 	bl	0 <sdio_cmd>
 35c:	e1dd51b1 	ldrh	r5, [sp, #17]
 360:	e1a01004 	mov	r1, r4
 364:	e6bf5fb5 	rev16	r5, r5
 368:	e6ff5075 	uxth	r5, r5
 36c:	e1a00005 	mov	r0, r5
 370:	ebfffffe 	bl	0 <sdio_cmd7>
 374:	e3a03001 	mov	r3, #1
 378:	e3a02003 	mov	r2, #3
 37c:	e3a01013 	mov	r1, #19
 380:	e1a00004 	mov	r0, r4
 384:	ebfffffe 	bl	0 <sdio_cmd52_writes>
 388:	e3a03001 	mov	r3, #1
 38c:	e3a02042 	mov	r2, #66	; 0x42
 390:	e3a01007 	mov	r1, #7
 394:	e1a00004 	mov	r0, r4
 398:	ebfffffe 	bl	0 <sdio_cmd52_writes>
 39c:	e3a03002 	mov	r3, #2
 3a0:	e3a02040 	mov	r2, #64	; 0x40
 3a4:	e3a01e11 	mov	r1, #272	; 0x110
 3a8:	e1a00004 	mov	r0, r4
 3ac:	ebfffffe 	bl	0 <sdio_cmd52_writes>
 3b0:	e3a03002 	mov	r3, #2
 3b4:	e3a02c02 	mov	r2, #512	; 0x200
 3b8:	e3a01e21 	mov	r1, #528	; 0x210
 3bc:	e1a00004 	mov	r0, r4
 3c0:	ebfffffe 	bl	0 <sdio_cmd52_writes>
 3c4:	e3a02002 	mov	r2, #2
 3c8:	e1a01002 	mov	r1, r2
 3cc:	e3a03001 	mov	r3, #1
 3d0:	e1a00004 	mov	r0, r4
 3d4:	ebfffffe 	bl	0 <sdio_cmd52_writes>
 3d8:	e3a03001 	mov	r3, #1
 3dc:	e58d3000 	str	r3, [sp]
 3e0:	e1a00004 	mov	r0, r4
 3e4:	e3a03002 	mov	r3, #2
 3e8:	e3a020ff 	mov	r2, #255	; 0xff
 3ec:	e3a01003 	mov	r1, #3
 3f0:	ebfffffe 	bl	0 <sdio_cmd52_reads_check>
 3f4:	e1500004 	cmp	r0, r4
 3f8:	0a000149 	beq	924 <sdio_init+0x66c>
 3fc:	e3a00306 	mov	r0, #402653184	; 0x18000000
 400:	ebfffffe 	bl	0 <sdio_bak_window>
 404:	e28d200c 	add	r2, sp, #12
 408:	e3a03004 	mov	r3, #4
 40c:	e3a01902 	mov	r1, #32768	; 0x8000
 410:	e3a00001 	mov	r0, #1
 414:	ebfffffe 	bl	0 <sdio_cmd53_read>
 418:	e3a03001 	mov	r3, #1
 41c:	e1a00003 	mov	r0, r3
 420:	e3a02028 	mov	r2, #40	; 0x28
 424:	e59f1518 	ldr	r1, [pc, #1304]	; 944 <sdio_init+0x68c>
 428:	ebfffffe 	bl	0 <sdio_cmd52_writes>
 42c:	e3a03001 	mov	r3, #1
 430:	e28d200c 	add	r2, sp, #12
 434:	e1a00003 	mov	r0, r3
 438:	e59f1504 	ldr	r1, [pc, #1284]	; 944 <sdio_init+0x68c>
 43c:	ebfffffe 	bl	0 <sdio_cmd52_reads>
 440:	e3a03001 	mov	r3, #1
 444:	e1a00003 	mov	r0, r3
 448:	e3a02021 	mov	r2, #33	; 0x21
 44c:	e59f14f0 	ldr	r1, [pc, #1264]	; 944 <sdio_init+0x68c>
 450:	ebfffffe 	bl	0 <sdio_cmd52_writes>
 454:	e3a03001 	mov	r3, #1
 458:	e1a00003 	mov	r0, r3
 45c:	e3a02000 	mov	r2, #0
 460:	e59f14e0 	ldr	r1, [pc, #1248]	; 948 <sdio_init+0x690>
 464:	ebfffffe 	bl	0 <sdio_cmd52_writes>
 468:	e28d200c 	add	r2, sp, #12
 46c:	e3a03004 	mov	r3, #4
 470:	e3a01902 	mov	r1, #32768	; 0x8000
 474:	e3a00001 	mov	r0, #1
 478:	ebfffffe 	bl	0 <sdio_cmd53_read>
 47c:	e28d200c 	add	r2, sp, #12
 480:	e3a03004 	mov	r3, #4
 484:	e59f14c0 	ldr	r1, [pc, #1216]	; 94c <sdio_init+0x694>
 488:	e3a00001 	mov	r0, #1
 48c:	ebfffffe 	bl	0 <sdio_cmd53_read>
 490:	e3a01003 	mov	r1, #3
 494:	e59f04b4 	ldr	r0, [pc, #1204]	; 950 <sdio_init+0x698>
 498:	ebfffffe 	bl	0 <sdio_bak_write32>
 49c:	e3a01007 	mov	r1, #7
 4a0:	e59f04ac 	ldr	r0, [pc, #1196]	; 954 <sdio_init+0x69c>
 4a4:	ebfffffe 	bl	0 <sdio_bak_write32>
 4a8:	e3a01000 	mov	r1, #0
 4ac:	e59f04a4 	ldr	r0, [pc, #1188]	; 958 <sdio_init+0x6a0>
 4b0:	ebfffffe 	bl	0 <sdio_bak_write32>
 4b4:	e3a01005 	mov	r1, #5
 4b8:	e59f0494 	ldr	r0, [pc, #1172]	; 954 <sdio_init+0x69c>
 4bc:	ebfffffe 	bl	0 <sdio_bak_write32>
 4c0:	e3a01003 	mov	r1, #3
 4c4:	e59f0490 	ldr	r0, [pc, #1168]	; 95c <sdio_init+0x6a4>
 4c8:	ebfffffe 	bl	0 <sdio_bak_write32>
 4cc:	e3a01000 	mov	r1, #0
 4d0:	e59f0488 	ldr	r0, [pc, #1160]	; 960 <sdio_init+0x6a8>
 4d4:	ebfffffe 	bl	0 <sdio_bak_write32>
 4d8:	e3a01001 	mov	r1, #1
 4dc:	e59f0478 	ldr	r0, [pc, #1144]	; 95c <sdio_init+0x6a4>
 4e0:	ebfffffe 	bl	0 <sdio_bak_write32>
 4e4:	e28d100c 	add	r1, sp, #12
 4e8:	e59f046c 	ldr	r0, [pc, #1132]	; 95c <sdio_init+0x6a4>
 4ec:	ebfffffe 	bl	0 <sdio_bak_read32>
 4f0:	e3500000 	cmp	r0, #0
 4f4:	0a000002 	beq	504 <sdio_init+0x24c>
 4f8:	e5dd300c 	ldrb	r3, [sp, #12]
 4fc:	e3530001 	cmp	r3, #1
 500:	0a000000 	beq	508 <sdio_init+0x250>
 504:	ebfffffe 	bl	0 <disp_log_break>
 508:	e3a01003 	mov	r1, #3
 50c:	e59f0450 	ldr	r0, [pc, #1104]	; 964 <sdio_init+0x6ac>
 510:	ebfffffe 	bl	0 <sdio_bak_write32>
 514:	e3a01000 	mov	r1, #0
 518:	e59f0448 	ldr	r0, [pc, #1096]	; 968 <sdio_init+0x6b0>
 51c:	ebfffffe 	bl	0 <sdio_bak_write32>
 520:	e28d100c 	add	r1, sp, #12
 524:	e59f0430 	ldr	r0, [pc, #1072]	; 95c <sdio_init+0x6a4>
 528:	ebfffffe 	bl	0 <sdio_bak_read32>
 52c:	e3500000 	cmp	r0, #0
 530:	0a000002 	beq	540 <sdio_init+0x288>
 534:	e5dd300c 	ldrb	r3, [sp, #12]
 538:	e3530001 	cmp	r3, #1
 53c:	0a000000 	beq	544 <sdio_init+0x28c>
 540:	ebfffffe 	bl	0 <disp_log_break>
 544:	e28d100c 	add	r1, sp, #12
 548:	e59f0410 	ldr	r0, [pc, #1040]	; 960 <sdio_init+0x6a8>
 54c:	ebfffffe 	bl	0 <sdio_bak_read32>
 550:	e3500000 	cmp	r0, #0
 554:	0a0000f0 	beq	91c <sdio_init+0x664>
 558:	e5dd300c 	ldrb	r3, [sp, #12]
 55c:	e3530000 	cmp	r3, #0
 560:	1a0000ed 	bne	91c <sdio_init+0x664>
 564:	e28d100c 	add	r1, sp, #12
 568:	e59f03fc 	ldr	r0, [pc, #1020]	; 96c <sdio_init+0x6b4>
 56c:	ebfffffe 	bl	0 <sdio_bak_read32>
 570:	e3a01000 	mov	r1, #0
 574:	e59f03e8 	ldr	r0, [pc, #1000]	; 964 <sdio_init+0x6ac>
 578:	ebfffffe 	bl	0 <sdio_bak_write32>
 57c:	e28d100c 	add	r1, sp, #12
 580:	e59f03e8 	ldr	r0, [pc, #1000]	; 970 <sdio_init+0x6b8>
 584:	ebfffffe 	bl	0 <sdio_bak_read32>
 588:	e3a01001 	mov	r1, #1
 58c:	e59f03d0 	ldr	r0, [pc, #976]	; 964 <sdio_init+0x6ac>
 590:	ebfffffe 	bl	0 <sdio_bak_write32>
 594:	e28d100c 	add	r1, sp, #12
 598:	e59f03d0 	ldr	r0, [pc, #976]	; 970 <sdio_init+0x6b8>
 59c:	ebfffffe 	bl	0 <sdio_bak_read32>
 5a0:	e3a01002 	mov	r1, #2
 5a4:	e59f03b8 	ldr	r0, [pc, #952]	; 964 <sdio_init+0x6ac>
 5a8:	ebfffffe 	bl	0 <sdio_bak_write32>
 5ac:	e28d100c 	add	r1, sp, #12
 5b0:	e59f03b8 	ldr	r0, [pc, #952]	; 970 <sdio_init+0x6b8>
 5b4:	ebfffffe 	bl	0 <sdio_bak_read32>
 5b8:	e3a01003 	mov	r1, #3
 5bc:	e59f03a0 	ldr	r0, [pc, #928]	; 964 <sdio_init+0x6ac>
 5c0:	ebfffffe 	bl	0 <sdio_bak_write32>
 5c4:	e3a03001 	mov	r3, #1
 5c8:	e58d3000 	str	r3, [sp]
 5cc:	e3a020ff 	mov	r2, #255	; 0xff
 5d0:	e3a010f1 	mov	r1, #241	; 0xf1
 5d4:	e3a00000 	mov	r0, #0
 5d8:	ebfffffe 	bl	0 <sdio_cmd52_reads_check>
 5dc:	e3500000 	cmp	r0, #0
 5e0:	0a0000d3 	beq	934 <sdio_init+0x67c>
 5e4:	e3a03001 	mov	r3, #1
 5e8:	e3a02003 	mov	r2, #3
 5ec:	e3a010f1 	mov	r1, #241	; 0xf1
 5f0:	e3a00000 	mov	r0, #0
 5f4:	ebfffffe 	bl	0 <sdio_cmd52_writes>
 5f8:	e3a03004 	mov	r3, #4
 5fc:	e28d200c 	add	r2, sp, #12
 600:	e3a01c86 	mov	r1, #34304	; 0x8600
 604:	e3a00001 	mov	r0, #1
 608:	ebfffffe 	bl	0 <sdio_cmd53_read>
 60c:	e5ddc00d 	ldrb	ip, [sp, #13]
 610:	e3a03004 	mov	r3, #4
 614:	e28d200c 	add	r2, sp, #12
 618:	e38cc040 	orr	ip, ip, #64	; 0x40
 61c:	e3a01c86 	mov	r1, #34304	; 0x8600
 620:	e3a00001 	mov	r0, #1
 624:	e5cdc00d 	strb	ip, [sp, #13]
 628:	ebfffffe 	bl	0 <sdio_cmd53_write>
 62c:	e3a02002 	mov	r2, #2
 630:	e1a01002 	mov	r1, r2
 634:	e3a03001 	mov	r3, #1
 638:	e3a00000 	mov	r0, #0
 63c:	ebfffffe 	bl	0 <sdio_cmd52_writes>
 640:	e3a03001 	mov	r3, #1
 644:	e1a00003 	mov	r0, r3
 648:	e3a02000 	mov	r2, #0
 64c:	e59f12f0 	ldr	r1, [pc, #752]	; 944 <sdio_init+0x68c>
 650:	ebfffffe 	bl	0 <sdio_cmd52_writes>
 654:	e59f0318 	ldr	r0, [pc, #792]	; 974 <sdio_init+0x6bc>
 658:	ebfffffe 	bl	0 <usdelay>
 65c:	e3a03001 	mov	r3, #1
 660:	e1a00003 	mov	r0, r3
 664:	e3a02008 	mov	r2, #8
 668:	e59f12d4 	ldr	r1, [pc, #724]	; 944 <sdio_init+0x68c>
 66c:	ebfffffe 	bl	0 <sdio_cmd52_writes>
 670:	e3a00001 	mov	r0, #1
 674:	e58d0000 	str	r0, [sp]
 678:	e3a03048 	mov	r3, #72	; 0x48
 67c:	e3a020ff 	mov	r2, #255	; 0xff
 680:	e59f12bc 	ldr	r1, [pc, #700]	; 944 <sdio_init+0x68c>
 684:	ebfffffe 	bl	0 <sdio_cmd52_reads_check>
 688:	e3500000 	cmp	r0, #0
 68c:	0a0000a6 	beq	92c <sdio_init+0x674>
 690:	ebfffffe 	bl	16c <write_firmware>
 694:	e3a00916 	mov	r0, #360448	; 0x58000
 698:	ebfffffe 	bl	0 <sdio_bak_window>
 69c:	e28d2018 	add	r2, sp, #24
 6a0:	e3a03004 	mov	r3, #4
 6a4:	e59f12cc 	ldr	r1, [pc, #716]	; 978 <sdio_init+0x6c0>
 6a8:	e3a00001 	mov	r0, #1
 6ac:	ebfffffe 	bl	0 <sdio_cmd53_read>
 6b0:	ebfffffe 	bl	254 <write_nvram>
 6b4:	e28d2018 	add	r2, sp, #24
 6b8:	e3a0302c 	mov	r3, #44	; 0x2c
 6bc:	e59f12b8 	ldr	r1, [pc, #696]	; 97c <sdio_init+0x6c4>
 6c0:	e3a00001 	mov	r0, #1
 6c4:	ebfffffe 	bl	0 <sdio_cmd53_read>
 6c8:	e28d100c 	add	r1, sp, #12
 6cc:	e59f0288 	ldr	r0, [pc, #648]	; 95c <sdio_init+0x6a4>
 6d0:	ebfffffe 	bl	0 <sdio_bak_read32>
 6d4:	e28d100c 	add	r1, sp, #12
 6d8:	e59f0280 	ldr	r0, [pc, #640]	; 960 <sdio_init+0x6a8>
 6dc:	ebfffffe 	bl	0 <sdio_bak_read32>
 6e0:	e3e01000 	mvn	r1, #0
 6e4:	e59f0294 	ldr	r0, [pc, #660]	; 980 <sdio_init+0x6c8>
 6e8:	ebfffffe 	bl	0 <sdio_bak_write32>
 6ec:	e3a01003 	mov	r1, #3
 6f0:	e59f0258 	ldr	r0, [pc, #600]	; 950 <sdio_init+0x698>
 6f4:	ebfffffe 	bl	0 <sdio_bak_write32>
 6f8:	e3a01000 	mov	r1, #0
 6fc:	e59f0280 	ldr	r0, [pc, #640]	; 984 <sdio_init+0x6cc>
 700:	ebfffffe 	bl	0 <sdio_bak_write32>
 704:	e3a01001 	mov	r1, #1
 708:	e59f0240 	ldr	r0, [pc, #576]	; 950 <sdio_init+0x698>
 70c:	ebfffffe 	bl	0 <sdio_bak_write32>
 710:	e28d100c 	add	r1, sp, #12
 714:	e59f0234 	ldr	r0, [pc, #564]	; 950 <sdio_init+0x698>
 718:	ebfffffe 	bl	0 <sdio_bak_read32>
 71c:	e3a00306 	mov	r0, #402653184	; 0x18000000
 720:	ebfffffe 	bl	0 <sdio_bak_window>
 724:	e3a03001 	mov	r3, #1
 728:	e1a00003 	mov	r0, r3
 72c:	e3a02000 	mov	r2, #0
 730:	e59f120c 	ldr	r1, [pc, #524]	; 944 <sdio_init+0x68c>
 734:	ebfffffe 	bl	0 <sdio_cmd52_writes>
 738:	e3a03001 	mov	r3, #1
 73c:	e1a00003 	mov	r0, r3
 740:	e3a02010 	mov	r2, #16
 744:	e59f11f8 	ldr	r1, [pc, #504]	; 944 <sdio_init+0x68c>
 748:	ebfffffe 	bl	0 <sdio_cmd52_writes>
 74c:	e3a03001 	mov	r3, #1
 750:	e1a00003 	mov	r0, r3
 754:	e28d200c 	add	r2, sp, #12
 758:	e59f11e4 	ldr	r1, [pc, #484]	; 944 <sdio_init+0x68c>
 75c:	ebfffffe 	bl	0 <sdio_cmd52_reads>
 760:	e59f0220 	ldr	r0, [pc, #544]	; 988 <sdio_init+0x6d0>
 764:	ebfffffe 	bl	0 <usdelay>
 768:	e3a03001 	mov	r3, #1
 76c:	e1a00003 	mov	r0, r3
 770:	e28d200c 	add	r2, sp, #12
 774:	e59f11c8 	ldr	r1, [pc, #456]	; 944 <sdio_init+0x68c>
 778:	ebfffffe 	bl	0 <sdio_cmd52_reads>
 77c:	e3500000 	cmp	r0, #0
 780:	0a000002 	beq	790 <sdio_init+0x4d8>
 784:	e5dd300c 	ldrb	r3, [sp, #12]
 788:	e35300d0 	cmp	r3, #208	; 0xd0
 78c:	0a000000 	beq	794 <sdio_init+0x4dc>
 790:	ebfffffe 	bl	0 <disp_log_break>
 794:	e3a03001 	mov	r3, #1
 798:	e1a00003 	mov	r0, r3
 79c:	e3a020d2 	mov	r2, #210	; 0xd2
 7a0:	e59f119c 	ldr	r1, [pc, #412]	; 944 <sdio_init+0x68c>
 7a4:	ebfffffe 	bl	0 <sdio_cmd52_writes>
 7a8:	e3a01701 	mov	r1, #262144	; 0x40000
 7ac:	e59f01d8 	ldr	r0, [pc, #472]	; 98c <sdio_init+0x6d4>
 7b0:	ebfffffe 	bl	0 <sdio_bak_write32>
 7b4:	e3a03001 	mov	r3, #1
 7b8:	e3a02006 	mov	r2, #6
 7bc:	e3a01002 	mov	r1, #2
 7c0:	e3a00000 	mov	r0, #0
 7c4:	ebfffffe 	bl	0 <sdio_cmd52_writes>
 7c8:	e3a03001 	mov	r3, #1
 7cc:	e28d200c 	add	r2, sp, #12
 7d0:	e3a01003 	mov	r1, #3
 7d4:	e3a00000 	mov	r0, #0
 7d8:	ebfffffe 	bl	0 <sdio_cmd52_reads>
 7dc:	e59f01ac 	ldr	r0, [pc, #428]	; 990 <sdio_init+0x6d8>
 7e0:	ebfffffe 	bl	0 <usdelay>
 7e4:	e3a03001 	mov	r3, #1
 7e8:	e28d200c 	add	r2, sp, #12
 7ec:	e3a01003 	mov	r1, #3
 7f0:	e3a00000 	mov	r0, #0
 7f4:	ebfffffe 	bl	0 <sdio_cmd52_reads>
 7f8:	e3500000 	cmp	r0, #0
 7fc:	0a000002 	beq	80c <sdio_init+0x554>
 800:	e5dd300c 	ldrb	r3, [sp, #12]
 804:	e3530006 	cmp	r3, #6
 808:	0a000000 	beq	810 <sdio_init+0x558>
 80c:	ebfffffe 	bl	0 <disp_log_break>
 810:	e59f117c 	ldr	r1, [pc, #380]	; 994 <sdio_init+0x6dc>
 814:	e59f017c 	ldr	r0, [pc, #380]	; 998 <sdio_init+0x6e0>
 818:	ebfffffe 	bl	0 <sdio_bak_write32>
 81c:	e28d100c 	add	r1, sp, #12
 820:	e59f0174 	ldr	r0, [pc, #372]	; 99c <sdio_init+0x6e4>
 824:	ebfffffe 	bl	0 <sdio_bak_read32>
 828:	e3a00306 	mov	r0, #402653184	; 0x18000000
 82c:	ebfffffe 	bl	0 <sdio_bak_window>
 830:	e3a03001 	mov	r3, #1
 834:	e1a00003 	mov	r0, r3
 838:	e3a02002 	mov	r2, #2
 83c:	e59f115c 	ldr	r1, [pc, #348]	; 9a0 <sdio_init+0x6e8>
 840:	ebfffffe 	bl	0 <sdio_cmd52_writes>
 844:	e3a03001 	mov	r3, #1
 848:	e3a02006 	mov	r2, #6
 84c:	e3a010f0 	mov	r1, #240	; 0xf0
 850:	e3a00000 	mov	r0, #0
 854:	ebfffffe 	bl	0 <sdio_cmd52_writes>
 858:	e3a03001 	mov	r3, #1
 85c:	e3a02007 	mov	r2, #7
 860:	e3a01004 	mov	r1, #4
 864:	e3a00000 	mov	r0, #0
 868:	ebfffffe 	bl	0 <sdio_cmd52_writes>
 86c:	e28d200c 	add	r2, sp, #12
 870:	e3a03001 	mov	r3, #1
 874:	e3a01005 	mov	r1, #5
 878:	e3a00000 	mov	r0, #0
 87c:	ebfffffe 	bl	0 <sdio_cmd52_reads>
 880:	e28d100c 	add	r1, sp, #12
 884:	e59f00f4 	ldr	r0, [pc, #244]	; 980 <sdio_init+0x6c8>
 888:	ebfffffe 	bl	0 <sdio_bak_read32>
 88c:	e59f1110 	ldr	r1, [pc, #272]	; 9a4 <sdio_init+0x6ec>
 890:	e59f00e8 	ldr	r0, [pc, #232]	; 980 <sdio_init+0x6c8>
 894:	ebfffffe 	bl	0 <sdio_bak_write32>
 898:	e28d100c 	add	r1, sp, #12
 89c:	e59f0104 	ldr	r0, [pc, #260]	; 9a8 <sdio_init+0x6f0>
 8a0:	ebfffffe 	bl	0 <sdio_bak_read32>
 8a4:	e3a01002 	mov	r1, #2
 8a8:	e59f00fc 	ldr	r0, [pc, #252]	; 9ac <sdio_init+0x6f4>
 8ac:	ebfffffe 	bl	0 <sdio_bak_write32>
 8b0:	e28d100c 	add	r1, sp, #12
 8b4:	e59f00e0 	ldr	r0, [pc, #224]	; 99c <sdio_init+0x6e4>
 8b8:	ebfffffe 	bl	0 <sdio_bak_read32>
 8bc:	e28d100c 	add	r1, sp, #12
 8c0:	e59f00e8 	ldr	r0, [pc, #232]	; 9b0 <sdio_init+0x6f8>
 8c4:	ebfffffe 	bl	0 <sdio_bak_read32>
 8c8:	e3a0090e 	mov	r0, #229376	; 0x38000
 8cc:	ebfffffe 	bl	0 <sdio_bak_window>
 8d0:	e28d2018 	add	r2, sp, #24
 8d4:	e3a03040 	mov	r3, #64	; 0x40
 8d8:	e59f10d4 	ldr	r1, [pc, #212]	; 9b4 <sdio_init+0x6fc>
 8dc:	e3a00001 	mov	r0, #1
 8e0:	ebfffffe 	bl	0 <sdio_cmd53_read>
 8e4:	e28d100c 	add	r1, sp, #12
 8e8:	e59f0090 	ldr	r0, [pc, #144]	; 980 <sdio_init+0x6c8>
 8ec:	ebfffffe 	bl	0 <sdio_bak_read32>
 8f0:	e3a01080 	mov	r1, #128	; 0x80
 8f4:	e59f0084 	ldr	r0, [pc, #132]	; 980 <sdio_init+0x6c8>
 8f8:	ebfffffe 	bl	0 <sdio_bak_write32>
 8fc:	e28d2018 	add	r2, sp, #24
 900:	e3a03040 	mov	r3, #64	; 0x40
 904:	e3a01902 	mov	r1, #32768	; 0x8000
 908:	e3a00002 	mov	r0, #2
 90c:	ebfffffe 	bl	0 <sdio_cmd53_read>
 910:	e1a00005 	mov	r0, r5
 914:	e28ddf89 	add	sp, sp, #548	; 0x224
 918:	e8bd8030 	pop	{r4, r5, pc}
 91c:	ebfffffe 	bl	0 <disp_log_break>
 920:	eaffff0f 	b	564 <sdio_init+0x2ac>
 924:	ebfffffe 	bl	0 <disp_log_break>
 928:	eafffeb3 	b	3fc <sdio_init+0x144>
 92c:	ebfffffe 	bl	0 <disp_log_break>
 930:	eaffff56 	b	690 <sdio_init+0x3d8>
 934:	ebfffffe 	bl	0 <disp_log_break>
 938:	eaffff29 	b	5e4 <sdio_init+0x32c>
 93c:	00004e20 	.word	0x00004e20
 940:	000001aa 	.word	0x000001aa
 944:	0001000e 	.word	0x0001000e
 948:	0001000f 	.word	0x0001000f
 94c:	000080fc 	.word	0x000080fc
 950:	18103408 	.word	0x18103408
 954:	18101408 	.word	0x18101408
 958:	18101800 	.word	0x18101800
 95c:	18104408 	.word	0x18104408
 960:	18104800 	.word	0x18104800
 964:	18004010 	.word	0x18004010
 968:	18004044 	.word	0x18004044
 96c:	18004000 	.word	0x18004000
 970:	18004040 	.word	0x18004040
 974:	0000afc8 	.word	0x0000afc8
 978:	0000ee80 	.word	0x0000ee80
 97c:	0000ffd4 	.word	0x0000ffd4
 980:	18002020 	.word	0x18002020
 984:	18103800 	.word	0x18103800
 988:	0000c350 	.word	0x0000c350
 98c:	18002048 	.word	0x18002048
 990:	000186a0 	.word	0x000186a0
 994:	200000f0 	.word	0x200000f0
 998:	18002024 	.word	0x18002024
 99c:	18000508 	.word	0x18000508
 9a0:	0001001e 	.word	0x0001001e
 9a4:	200000c0 	.word	0x200000c0
 9a8:	1800204c 	.word	0x1800204c
 9ac:	18002040 	.word	0x18002040
 9b0:	0006fffc 	.word	0x0006fffc
 9b4:	000070d4 	.word	0x000070d4

000009b8 <sd_setup>:
 9b8:	e92d4010 	push	{r4, lr}
 9bc:	e3a02000 	mov	r2, #0
 9c0:	e3a01001 	mov	r1, #1
 9c4:	e3a00022 	mov	r0, #34	; 0x22
 9c8:	ebfffffe 	bl	0 <gpio_set>
 9cc:	e3a02002 	mov	r2, #2
 9d0:	e3a01000 	mov	r1, #0
 9d4:	e3a00023 	mov	r0, #35	; 0x23
 9d8:	ebfffffe 	bl	0 <gpio_set>
 9dc:	e3a02002 	mov	r2, #2
 9e0:	e3a01000 	mov	r1, #0
 9e4:	e3a00024 	mov	r0, #36	; 0x24
 9e8:	ebfffffe 	bl	0 <gpio_set>
 9ec:	e3a02002 	mov	r2, #2
 9f0:	e3a01000 	mov	r1, #0
 9f4:	e3a00025 	mov	r0, #37	; 0x25
 9f8:	ebfffffe 	bl	0 <gpio_set>
 9fc:	e3a02002 	mov	r2, #2
 a00:	e3a01000 	mov	r1, #0
 a04:	e3a00026 	mov	r0, #38	; 0x26
 a08:	ebfffffe 	bl	0 <gpio_set>
 a0c:	e3a02002 	mov	r2, #2
 a10:	e3a01000 	mov	r1, #0
 a14:	e3a00027 	mov	r0, #39	; 0x27
 a18:	e8bd4010 	pop	{r4, lr}
 a1c:	eafffffe 	b	0 <gpio_set>

00000a20 <joinit>:
 a20:	e92d4ff0 	push	{r4, r5, r6, r7, r8, r9, sl, fp, lr}
 a24:	ed2d8b02 	vpush	{d8}
 a28:	e3a04000 	mov	r4, #0
 a2c:	e24dd0a4 	sub	sp, sp, #164	; 0xa4
 a30:	e28d5020 	add	r5, sp, #32
 a34:	e58d4008 	str	r4, [sp, #8]
 a38:	ebfffffe 	bl	0 <ustime>
 a3c:	e3a02080 	mov	r2, #128	; 0x80
 a40:	e1a01004 	mov	r1, r4
 a44:	e1a0b000 	mov	fp, r0
 a48:	e1a00005 	mov	r0, r5
 a4c:	ebfffffe 	bl	0 <memset>
 a50:	e58d400c 	str	r4, [sp, #12]
 a54:	e58d400f 	str	r4, [sp, #15]
 a58:	ebfffffe 	bl	0 <crc7_init>
 a5c:	ebfffffe 	bl	0 <qcrc16r_init>
 a60:	e1a01004 	mov	r1, r4
 a64:	e28d0008 	add	r0, sp, #8
 a68:	ebfffffe 	bl	0 <ustimeout>
 a6c:	e59f0434 	ldr	r0, [pc, #1076]	; ea8 <joinit+0x488>
 a70:	ebfffffe 	bl	0 <puts>
 a74:	ebfffffe 	bl	0 <__getreent>
 a78:	e5900008 	ldr	r0, [r0, #8]
 a7c:	ebfffffe 	bl	0 <fflush>
 a80:	ebfffffe 	bl	0 <osc_init>
 a84:	e1a02004 	mov	r2, r4
 a88:	e3a01001 	mov	r1, #1
 a8c:	e3a0002f 	mov	r0, #47	; 0x2f
 a90:	ebfffffe 	bl	0 <gpio_set>
 a94:	ebfffffe 	bl	9b8 <sd_setup>
 a98:	e3a01001 	mov	r1, #1
 a9c:	e3a00029 	mov	r0, #41	; 0x29
 aa0:	ebfffffe 	bl	0 <gpio_out>
 aa4:	e59f0400 	ldr	r0, [pc, #1024]	; eac <joinit+0x48c>
 aa8:	ebfffffe 	bl	0 <flash_init>
 aac:	e59f03f8 	ldr	r0, [pc, #1016]	; eac <joinit+0x48c>
 ab0:	ebfffffe 	bl	0 <usdelay>
 ab4:	e3a00002 	mov	r0, #2
 ab8:	ebfffffe 	bl	0 <log_enable>
 abc:	ebfffffe 	bl	2b8 <sdio_init>
 ac0:	e1a02005 	mov	r2, r5
 ac4:	e3a03040 	mov	r3, #64	; 0x40
 ac8:	e3a01902 	mov	r1, #32768	; 0x8000
 acc:	e3a00002 	mov	r0, #2
 ad0:	ebfffffe 	bl	0 <sdio_cmd53_read>
 ad4:	e1a01004 	mov	r1, r4
 ad8:	e28d200c 	add	r2, sp, #12
 adc:	e3a03006 	mov	r3, #6
 ae0:	e59f03c8 	ldr	r0, [pc, #968]	; eb0 <joinit+0x490>
 ae4:	ebfffffe 	bl	0 <ioctl_get_data>
 ae8:	e1a04000 	mov	r4, r0
 aec:	e59f03c0 	ldr	r0, [pc, #960]	; eb4 <joinit+0x494>
 af0:	ebfffffe 	bl	0 <printf>
 af4:	e3540000 	cmp	r4, #0
 af8:	0a0000e4 	beq	e90 <joinit+0x470>
 afc:	e28d000c 	add	r0, sp, #12
 b00:	ebfffffe 	bl	6c <disp_mac_addr>
 b04:	e3a03080 	mov	r3, #128	; 0x80
 b08:	e1a02005 	mov	r2, r5
 b0c:	e3a01000 	mov	r1, #0
 b10:	e59f03a0 	ldr	r0, [pc, #928]	; eb8 <joinit+0x498>
 b14:	ebfffffe 	bl	0 <ioctl_get_data>
 b18:	e59f139c 	ldr	r1, [pc, #924]	; ebc <joinit+0x49c>
 b1c:	e3500000 	cmp	r0, #0
 b20:	11a01005 	movne	r1, r5
 b24:	e59f0394 	ldr	r0, [pc, #916]	; ec0 <joinit+0x4a0>
 b28:	ebfffffe 	bl	0 <printf>
 b2c:	e3a0300c 	mov	r3, #12
 b30:	e59f238c 	ldr	r2, [pc, #908]	; ec4 <joinit+0x4a4>
 b34:	e3a01064 	mov	r1, #100	; 0x64
 b38:	e59f0388 	ldr	r0, [pc, #904]	; ec8 <joinit+0x4a8>
 b3c:	ebfffffe 	bl	0 <ioctl_set_data>
 b40:	e3500000 	cmp	r0, #0
 b44:	1a000001 	bne	b50 <joinit+0x130>
 b48:	e59f037c 	ldr	r0, [pc, #892]	; ecc <joinit+0x4ac>
 b4c:	ebfffffe 	bl	0 <puts>
 b50:	e3a02000 	mov	r2, #0
 b54:	e3a010c8 	mov	r1, #200	; 0xc8
 b58:	e3a00002 	mov	r0, #2
 b5c:	ebfffffe 	bl	0 <ioctl_wr_int32>
 b60:	e3500000 	cmp	r0, #0
 b64:	1a000004 	bne	b7c <joinit+0x15c>
 b68:	e59f0360 	ldr	r0, [pc, #864]	; ed0 <joinit+0x4b0>
 b6c:	ebfffffe 	bl	0 <puts>
 b70:	ebfffffe 	bl	0 <__getreent>
 b74:	e5900008 	ldr	r0, [r0, #8]
 b78:	ebfffffe 	bl	0 <fflush>
 b7c:	e59f0350 	ldr	r0, [pc, #848]	; ed4 <joinit+0x4b4>
 b80:	ebfffffe 	bl	0 <ioctl_enable_evts>
 b84:	e3a02001 	mov	r2, #1
 b88:	e3a01032 	mov	r1, #50	; 0x32
 b8c:	e3a00014 	mov	r0, #20
 b90:	ebfffffe 	bl	0 <ioctl_wr_int32>
 b94:	e3500000 	cmp	r0, #0
 b98:	1a000003 	bne	bac <joinit+0x18c>
 b9c:	e59f2334 	ldr	r2, [pc, #820]	; ed8 <joinit+0x4b8>
 ba0:	e59f1334 	ldr	r1, [pc, #820]	; edc <joinit+0x4bc>
 ba4:	e59f0334 	ldr	r0, [pc, #820]	; ee0 <joinit+0x4c0>
 ba8:	ebfffffe 	bl	0 <printf>
 bac:	e3a02000 	mov	r2, #0
 bb0:	e1a01002 	mov	r1, r2
 bb4:	e3a00016 	mov	r0, #22
 bb8:	ebfffffe 	bl	0 <ioctl_wr_int32>
 bbc:	e3500000 	cmp	r0, #0
 bc0:	1a000003 	bne	bd4 <joinit+0x1b4>
 bc4:	e59f2318 	ldr	r2, [pc, #792]	; ee4 <joinit+0x4c4>
 bc8:	e59f130c 	ldr	r1, [pc, #780]	; edc <joinit+0x4bc>
 bcc:	e59f030c 	ldr	r0, [pc, #780]	; ee0 <joinit+0x4c0>
 bd0:	ebfffffe 	bl	0 <printf>
 bd4:	e3a02006 	mov	r2, #6
 bd8:	e3a01000 	mov	r1, #0
 bdc:	e3a00086 	mov	r0, #134	; 0x86
 be0:	ebfffffe 	bl	0 <ioctl_wr_int32>
 be4:	e3500000 	cmp	r0, #0
 be8:	1a000003 	bne	bfc <joinit+0x1dc>
 bec:	e59f22f4 	ldr	r2, [pc, #756]	; ee8 <joinit+0x4c8>
 bf0:	e59f12e4 	ldr	r1, [pc, #740]	; edc <joinit+0x4bc>
 bf4:	e59f02e4 	ldr	r0, [pc, #740]	; ee0 <joinit+0x4c0>
 bf8:	ebfffffe 	bl	0 <printf>
 bfc:	e3a02000 	mov	r2, #0
 c00:	e1a01002 	mov	r1, r2
 c04:	e3a03001 	mov	r3, #1
 c08:	e59f02dc 	ldr	r0, [pc, #732]	; eec <joinit+0x4cc>
 c0c:	ebfffffe 	bl	0 <ioctl_set_intx2>
 c10:	e3500000 	cmp	r0, #0
 c14:	1a000003 	bne	c28 <joinit+0x208>
 c18:	e59f22d0 	ldr	r2, [pc, #720]	; ef0 <joinit+0x4d0>
 c1c:	e59f12d0 	ldr	r1, [pc, #720]	; ef4 <joinit+0x4d4>
 c20:	e59f02b8 	ldr	r0, [pc, #696]	; ee0 <joinit+0x4c0>
 c24:	ebfffffe 	bl	0 <printf>
 c28:	e3a02000 	mov	r2, #0
 c2c:	e1a01002 	mov	r1, r2
 c30:	e3e03000 	mvn	r3, #0
 c34:	e59f02bc 	ldr	r0, [pc, #700]	; ef8 <joinit+0x4d8>
 c38:	ebfffffe 	bl	0 <ioctl_set_intx2>
 c3c:	e3500000 	cmp	r0, #0
 c40:	1a000003 	bne	c54 <joinit+0x234>
 c44:	e59f22b0 	ldr	r2, [pc, #688]	; efc <joinit+0x4dc>
 c48:	e59f12a4 	ldr	r1, [pc, #676]	; ef4 <joinit+0x4d4>
 c4c:	e59f028c 	ldr	r0, [pc, #652]	; ee0 <joinit+0x4c0>
 c50:	ebfffffe 	bl	0 <printf>
 c54:	e3a02000 	mov	r2, #0
 c58:	e1a01002 	mov	r1, r2
 c5c:	e59f329c 	ldr	r3, [pc, #668]	; f00 <joinit+0x4e0>
 c60:	e59f029c 	ldr	r0, [pc, #668]	; f04 <joinit+0x4e4>
 c64:	ebfffffe 	bl	0 <ioctl_set_intx2>
 c68:	e3500000 	cmp	r0, #0
 c6c:	1a000003 	bne	c80 <joinit+0x260>
 c70:	e59f2290 	ldr	r2, [pc, #656]	; f08 <joinit+0x4e8>
 c74:	e59f1278 	ldr	r1, [pc, #632]	; ef4 <joinit+0x4d4>
 c78:	e59f0260 	ldr	r0, [pc, #608]	; ee0 <joinit+0x4c0>
 c7c:	ebfffffe 	bl	0 <printf>
 c80:	e3a03044 	mov	r3, #68	; 0x44
 c84:	e59f2280 	ldr	r2, [pc, #640]	; f0c <joinit+0x4ec>
 c88:	e3a01000 	mov	r1, #0
 c8c:	e3a00f43 	mov	r0, #268	; 0x10c
 c90:	ebfffffe 	bl	0 <ioctl_wr_data>
 c94:	e3500000 	cmp	r0, #0
 c98:	1a000003 	bne	cac <joinit+0x28c>
 c9c:	e59f226c 	ldr	r2, [pc, #620]	; f10 <joinit+0x4f0>
 ca0:	e59f126c 	ldr	r1, [pc, #620]	; f14 <joinit+0x4f4>
 ca4:	e59f0234 	ldr	r0, [pc, #564]	; ee0 <joinit+0x4c0>
 ca8:	ebfffffe 	bl	0 <printf>
 cac:	e3a02080 	mov	r2, #128	; 0x80
 cb0:	e3a01000 	mov	r1, #0
 cb4:	e3a000a5 	mov	r0, #165	; 0xa5
 cb8:	ebfffffe 	bl	0 <ioctl_wr_int32>
 cbc:	e3500000 	cmp	r0, #0
 cc0:	1a000003 	bne	cd4 <joinit+0x2b4>
 cc4:	e59f224c 	ldr	r2, [pc, #588]	; f18 <joinit+0x4f8>
 cc8:	e59f120c 	ldr	r1, [pc, #524]	; edc <joinit+0x4bc>
 ccc:	e59f020c 	ldr	r0, [pc, #524]	; ee0 <joinit+0x4c0>
 cd0:	ebfffffe 	bl	0 <printf>
 cd4:	e59f0240 	ldr	r0, [pc, #576]	; f1c <joinit+0x4fc>
 cd8:	ebfffffe 	bl	0 <ioctl_enable_evts>
 cdc:	e3a03024 	mov	r3, #36	; 0x24
 ce0:	e59f2238 	ldr	r2, [pc, #568]	; f20 <joinit+0x500>
 ce4:	e3a01064 	mov	r1, #100	; 0x64
 ce8:	e3a0001a 	mov	r0, #26
 cec:	ebfffffe 	bl	0 <ioctl_wr_data>
 cf0:	e3500000 	cmp	r0, #0
 cf4:	1a000003 	bne	d08 <joinit+0x2e8>
 cf8:	e59f2224 	ldr	r2, [pc, #548]	; f24 <joinit+0x504>
 cfc:	e59f1210 	ldr	r1, [pc, #528]	; f14 <joinit+0x4f4>
 d00:	e59f01d8 	ldr	r0, [pc, #472]	; ee0 <joinit+0x4c0>
 d04:	ebfffffe 	bl	0 <printf>
 d08:	e59f8218 	ldr	r8, [pc, #536]	; f28 <joinit+0x508>
 d0c:	ed9f8b63 	vldr	d8, [pc, #396]	; ea0 <joinit+0x480>
 d10:	e59f4214 	ldr	r4, [pc, #532]	; f2c <joinit+0x50c>
 d14:	e59f9214 	ldr	r9, [pc, #532]	; f30 <joinit+0x510>
 d18:	e3a06000 	mov	r6, #0
 d1c:	e1a07008 	mov	r7, r8
 d20:	e288a00a 	add	sl, r8, #10
 d24:	e59f5208 	ldr	r5, [pc, #520]	; f34 <joinit+0x514>
 d28:	e3a00001 	mov	r0, #1
 d2c:	ebfffffe 	bl	0 <usdelay>
 d30:	e5d43000 	ldrb	r3, [r4]
 d34:	e16f3f13 	clz	r3, r3
 d38:	e1a032a3 	lsr	r3, r3, #5
 d3c:	e1a01003 	mov	r1, r3
 d40:	e3a00022 	mov	r0, #34	; 0x22
 d44:	e5c43000 	strb	r3, [r4]
 d48:	ebfffffe 	bl	0 <gpio_out>
 d4c:	e1a01005 	mov	r1, r5
 d50:	e28d0008 	add	r0, sp, #8
 d54:	ebfffffe 	bl	0 <ustimeout>
 d58:	e3500000 	cmp	r0, #0
 d5c:	0afffff1 	beq	d28 <joinit+0x308>
 d60:	e2265001 	eor	r5, r6, #1
 d64:	e1a01005 	mov	r1, r5
 d68:	e3a0002f 	mov	r0, #47	; 0x2f
 d6c:	ebfffffe 	bl	0 <gpio_out>
 d70:	e3560000 	cmp	r6, #0
 d74:	0a000006 	beq	d94 <joinit+0x374>
 d78:	e3a0002e 	mov	r0, #46	; 0x2e
 d7c:	ebfffffe 	bl	0 <putchar>
 d80:	ebfffffe 	bl	0 <__getreent>
 d84:	e5900008 	ldr	r0, [r0, #8]
 d88:	ebfffffe 	bl	0 <fflush>
 d8c:	e1a06005 	mov	r6, r5
 d90:	eaffffe3 	b	d24 <joinit+0x304>
 d94:	e3a02d19 	mov	r2, #1600	; 0x640
 d98:	e1a01007 	mov	r1, r7
 d9c:	e28d0014 	add	r0, sp, #20
 da0:	ebfffffe 	bl	0 <ioctl_get_event>
 da4:	e2506000 	subs	r6, r0, #0
 da8:	dafffff7 	ble	d8c <joinit+0x36c>
 dac:	ebfffffe 	bl	0 <ustime>
 db0:	e040300b 	sub	r3, r0, fp
 db4:	e1a00009 	mov	r0, r9
 db8:	ee073a10 	vmov	s14, r3
 dbc:	eeb87bc7 	vcvt.f64.s32	d7, s14
 dc0:	ee877b08 	vdiv.f64	d7, d7, d8
 dc4:	ec532b17 	vmov	r2, r3, d7
 dc8:	ebfffffe 	bl	0 <printf>
 dcc:	e1a02006 	mov	r2, r6
 dd0:	e59f1160 	ldr	r1, [pc, #352]	; f38 <joinit+0x518>
 dd4:	e28d0014 	add	r0, sp, #20
 dd8:	ebfffffe 	bl	0 <disp_fields>
 ddc:	e3a0000a 	mov	r0, #10
 de0:	ebfffffe 	bl	0 <putchar>
 de4:	e3a0100c 	mov	r1, #12
 de8:	e28d0014 	add	r0, sp, #20
 dec:	ebfffffe 	bl	0 <disp_bytes>
 df0:	e3a0000a 	mov	r0, #10
 df4:	ebfffffe 	bl	0 <putchar>
 df8:	e3a0200e 	mov	r2, #14
 dfc:	e59f1138 	ldr	r1, [pc, #312]	; f3c <joinit+0x51c>
 e00:	e1a0000a 	mov	r0, sl
 e04:	ebfffffe 	bl	0 <disp_fields>
 e08:	e1d821b6 	ldrh	r2, [r8, #22]
 e0c:	e59f312c 	ldr	r3, [pc, #300]	; f40 <joinit+0x520>
 e10:	e1520003 	cmp	r2, r3
 e14:	0a000007 	beq	e38 <joinit+0x418>
 e18:	e3a0000a 	mov	r0, #10
 e1c:	ebfffffe 	bl	0 <putchar>
 e20:	e1a00007 	mov	r0, r7
 e24:	e1a01006 	mov	r1, r6
 e28:	ebfffffe 	bl	cc <disp_block>
 e2c:	e3a0000a 	mov	r0, #10
 e30:	ebfffffe 	bl	0 <putchar>
 e34:	eaffffd4 	b	d8c <joinit+0x36c>
 e38:	e3a0200a 	mov	r2, #10
 e3c:	e59f1100 	ldr	r1, [pc, #256]	; f44 <joinit+0x524>
 e40:	e59f0100 	ldr	r0, [pc, #256]	; f48 <joinit+0x528>
 e44:	ebfffffe 	bl	0 <disp_fields>
 e48:	e3a0000a 	mov	r0, #10
 e4c:	ebfffffe 	bl	0 <putchar>
 e50:	e3a02030 	mov	r2, #48	; 0x30
 e54:	e59f10f0 	ldr	r1, [pc, #240]	; f4c <joinit+0x52c>
 e58:	e59f00f0 	ldr	r0, [pc, #240]	; f50 <joinit+0x530>
 e5c:	ebfffffe 	bl	0 <disp_fields>
 e60:	e5980026 	ldr	r0, [r8, #38]	; 0x26
 e64:	e6bf0f30 	rev	r0, r0
 e68:	ebfffffe 	bl	0 <ioctl_evt_str>
 e6c:	e58d0004 	str	r0, [sp, #4]
 e70:	e598002a 	ldr	r0, [r8, #42]	; 0x2a
 e74:	e6bf0f30 	rev	r0, r0
 e78:	ebfffffe 	bl	0 <ioctl_evt_status_str>
 e7c:	e59d1004 	ldr	r1, [sp, #4]
 e80:	e1a02000 	mov	r2, r0
 e84:	e59f00c8 	ldr	r0, [pc, #200]	; f54 <joinit+0x534>
 e88:	ebfffffe 	bl	0 <printf>
 e8c:	eaffffe1 	b	e18 <joinit+0x3f8>
 e90:	e59f00c0 	ldr	r0, [pc, #192]	; f58 <joinit+0x538>
 e94:	ebfffffe 	bl	0 <printf>
 e98:	eaffff19 	b	b04 <joinit+0xe4>
 e9c:	e1a00000 	nop			; (mov r0, r0)
 ea0:	00000000 	.word	0x00000000
 ea4:	412e8480 	.word	0x412e8480
 ea8:	00000040 	.word	0x00000040
 eac:	00002710 	.word	0x00002710
 eb0:	00000060 	.word	0x00000060
 eb4:	00000070 	.word	0x00000070
 eb8:	0000008c 	.word	0x0000008c
 ebc:	00000030 	.word	0x00000030
 ec0:	00000090 	.word	0x00000090
 ec4:	000002b4 	.word	0x000002b4
 ec8:	000000a0 	.word	0x000000a0
 ecc:	000000a8 	.word	0x000000a8
 ed0:	000000bc 	.word	0x000000bc
 ed4:	000002c0 	.word	0x000002c0
 ed8:	000000d4 	.word	0x000000d4
 edc:	000000e4 	.word	0x000000e4
 ee0:	000000f4 	.word	0x000000f4
 ee4:	00000108 	.word	0x00000108
 ee8:	00000118 	.word	0x00000118
 eec:	00000128 	.word	0x00000128
 ef0:	00000138 	.word	0x00000138
 ef4:	0000014c 	.word	0x0000014c
 ef8:	0000015c 	.word	0x0000015c
 efc:	00000174 	.word	0x00000174
 f00:	000009c4 	.word	0x000009c4
 f04:	00000190 	.word	0x00000190
 f08:	000001a4 	.word	0x000001a4
 f0c:	000002c8 	.word	0x000002c8
 f10:	000001bc 	.word	0x000001bc
 f14:	000001d0 	.word	0x000001d0
 f18:	000001e0 	.word	0x000001e0
 f1c:	0000030c 	.word	0x0000030c
 f20:	00000344 	.word	0x00000344
 f24:	000001f4 	.word	0x000001f4
	...
 f30:	00000204 	.word	0x00000204
 f34:	00004e20 	.word	0x00004e20
 f38:	00000000 	.word	0x00000000
 f3c:	00000368 	.word	0x00000368
 f40:	00006c88 	.word	0x00006c88
 f44:	00000380 	.word	0x00000380
 f48:	00000018 	.word	0x00000018
 f4c:	0000039c 	.word	0x0000039c
 f50:	00000022 	.word	0x00000022
 f54:	0000020c 	.word	0x0000020c
 f58:	00000080 	.word	0x00000080
