In archive libwifi.a:

zjoin.o:     file format elf32-littlearm


Disassembly of section .text:

00000000 <disp_ssid>:
   0:	e5d01000 	ldrb	r1, [r0]
   4:	e3510000 	cmp	r1, #0
   8:	0a00001a 	beq	78 <disp_ssid+0x78>
   c:	e5d03001 	ldrb	r3, [r0, #1]
  10:	e3530000 	cmp	r3, #0
  14:	0a000017 	beq	78 <disp_ssid+0x78>
  18:	e3510020 	cmp	r1, #32
  1c:	ca000023 	bgt	b0 <disp_ssid+0xb0>
  20:	e92d41f0 	push	{r4, r5, r6, r7, r8, lr}
  24:	e1a04000 	mov	r4, r0
  28:	e0806001 	add	r6, r0, r1
  2c:	e1540006 	cmp	r4, r6
  30:	0a00000f 	beq	74 <disp_ssid+0x74>
  34:	ebfffffe 	bl	0 <__getreent>
  38:	e5f45001 	ldrb	r5, [r4, #1]!
  3c:	e1a07000 	mov	r7, r0
  40:	ebfffffe 	bl	0 <__getreent>
  44:	e5902008 	ldr	r2, [r0, #8]
  48:	e5923008 	ldr	r3, [r2, #8]
  4c:	e2433001 	sub	r3, r3, #1
  50:	e3530000 	cmp	r3, #0
  54:	e5823008 	str	r3, [r2, #8]
  58:	ba000008 	blt	80 <disp_ssid+0x80>
  5c:	e5923000 	ldr	r3, [r2]
  60:	e1540006 	cmp	r4, r6
  64:	e2831001 	add	r1, r3, #1
  68:	e5821000 	str	r1, [r2]
  6c:	e5c35000 	strb	r5, [r3]
  70:	1affffef 	bne	34 <disp_ssid+0x34>
  74:	e8bd81f0 	pop	{r4, r5, r6, r7, r8, pc}
  78:	e59f0038 	ldr	r0, [pc, #56]	; b8 <disp_ssid+0xb8>
  7c:	eafffffe 	b	0 <printf>
  80:	e5921018 	ldr	r1, [r2, #24]
  84:	e1530001 	cmp	r3, r1
  88:	b3a03000 	movlt	r3, #0
  8c:	a3a03001 	movge	r3, #1
  90:	e355000a 	cmp	r5, #10
  94:	03a03000 	moveq	r3, #0
  98:	e3530000 	cmp	r3, #0
  9c:	1affffee 	bne	5c <disp_ssid+0x5c>
  a0:	e1a01005 	mov	r1, r5
  a4:	e1a00007 	mov	r0, r7
  a8:	ebfffffe 	bl	0 <__swbuf_r>
  ac:	eaffffde 	b	2c <disp_ssid+0x2c>
  b0:	e59f0004 	ldr	r0, [pc, #4]	; bc <disp_ssid+0xbc>
  b4:	eafffffe 	b	0 <printf>
  b8:	00000000 	.word	0x00000000
  bc:	0000000c 	.word	0x0000000c

000000c0 <disp_mac_addr>:
  c0:	e92d4070 	push	{r4, r5, r6, lr}
  c4:	e1a05000 	mov	r5, r0
  c8:	e3a04001 	mov	r4, #1
  cc:	ea000001 	b	d8 <disp_mac_addr+0x18>
  d0:	e2844001 	add	r4, r4, #1
  d4:	e2855001 	add	r5, r5, #1
  d8:	e3540001 	cmp	r4, #1
  dc:	e59f1028 	ldr	r1, [pc, #40]	; 10c <disp_mac_addr+0x4c>
  e0:	e59f0028 	ldr	r0, [pc, #40]	; 110 <disp_mac_addr+0x50>
  e4:	e5d52000 	ldrb	r2, [r5]
  e8:	0a000003 	beq	fc <disp_mac_addr+0x3c>
  ec:	ebfffffe 	bl	0 <printf>
  f0:	e3540006 	cmp	r4, #6
  f4:	1afffff5 	bne	d0 <disp_mac_addr+0x10>
  f8:	e8bd8070 	pop	{r4, r5, r6, pc}
  fc:	e59f1010 	ldr	r1, [pc, #16]	; 114 <disp_mac_addr+0x54>
 100:	e59f0008 	ldr	r0, [pc, #8]	; 110 <disp_mac_addr+0x50>
 104:	ebfffffe 	bl	0 <printf>
 108:	eafffff0 	b	d0 <disp_mac_addr+0x10>
 10c:	00000020 	.word	0x00000020
 110:	00000024 	.word	0x00000024
 114:	0000002c 	.word	0x0000002c

00000118 <disp_block>:
 118:	e3510000 	cmp	r1, #0
 11c:	d12fff1e 	bxle	lr
 120:	e92d41f0 	push	{r4, r5, r6, r7, r8, lr}
 124:	e1a07000 	mov	r7, r0
 128:	e1a06001 	mov	r6, r1
 12c:	e3a05000 	mov	r5, #0
 130:	ea000000 	b	138 <disp_block+0x20>
 134:	ebfffffe 	bl	0 <putchar>
 138:	e0654006 	rsb	r4, r5, r6
 13c:	e3540020 	cmp	r4, #32
 140:	a3a04020 	movge	r4, #32
 144:	e1a01004 	mov	r1, r4
 148:	e0870005 	add	r0, r7, r5
 14c:	ebfffffe 	bl	0 <disp_bytes>
 150:	ebfffffe 	bl	0 <__getreent>
 154:	e0855004 	add	r5, r5, r4
 158:	e5900008 	ldr	r0, [r0, #8]
 15c:	ebfffffe 	bl	0 <fflush>
 160:	e1560005 	cmp	r6, r5
 164:	e3a0000a 	mov	r0, #10
 168:	cafffff1 	bgt	134 <disp_block+0x1c>
 16c:	e8bd81f0 	pop	{r4, r5, r6, r7, r8, pc}

00000170 <gdb_break>:
 170:	e12fff1e 	bx	lr

00000174 <firm_open_read>:
 174:	e59f3004 	ldr	r3, [pc, #4]	; 180 <firm_open_read+0xc>
 178:	e5830000 	str	r0, [r3]
 17c:	e12fff1e 	bx	lr
 180:	00000000 	.word	0x00000000

00000184 <firm_read>:
 184:	e92d4070 	push	{r4, r5, r6, lr}
 188:	e1a05001 	mov	r5, r1
 18c:	e59f4020 	ldr	r4, [pc, #32]	; 1b4 <firm_read+0x30>
 190:	e59f3020 	ldr	r3, [pc, #32]	; 1b8 <firm_read+0x34>
 194:	e1a02005 	mov	r2, r5
 198:	e5941000 	ldr	r1, [r4]
 19c:	e0831001 	add	r1, r3, r1
 1a0:	ebfffffe 	bl	0 <memcpy>
 1a4:	e5941000 	ldr	r1, [r4]
 1a8:	e0811005 	add	r1, r1, r5
 1ac:	e5841000 	str	r1, [r4]
 1b0:	e8bd8070 	pop	{r4, r5, r6, pc}
	...

000001bc <firm_close>:
 1bc:	e12fff1e 	bx	lr

000001c0 <write_firmware>:
 1c0:	e92d4ff8 	push	{r3, r4, r5, r6, r7, r8, r9, sl, fp, lr}
 1c4:	e3a03000 	mov	r3, #0
 1c8:	e59f70c0 	ldr	r7, [pc, #192]	; 290 <write_firmware+0xd0>
 1cc:	e59f90c0 	ldr	r9, [pc, #192]	; 294 <write_firmware+0xd4>
 1d0:	e59fa0c0 	ldr	sl, [pc, #192]	; 298 <write_firmware+0xd8>
 1d4:	e1a05003 	mov	r5, r3
 1d8:	e5873000 	str	r3, [r7]
 1dc:	ea000010 	b	224 <write_firmware+0x64>
 1e0:	e5974000 	ldr	r4, [r7]
 1e4:	e1a0630b 	lsl	r6, fp, #6
 1e8:	e0891004 	add	r1, r9, r4
 1ec:	e1a02006 	mov	r2, r6
 1f0:	ebfffffe 	bl	0 <memcpy>
 1f4:	e0844006 	add	r4, r4, r6
 1f8:	e1a0300b 	mov	r3, fp
 1fc:	e2881902 	add	r1, r8, #32768	; 0x8000
 200:	e59f2094 	ldr	r2, [pc, #148]	; 29c <write_firmware+0xdc>
 204:	e3a00001 	mov	r0, #1
 208:	e5874000 	str	r4, [r7]
 20c:	ebfffffe 	bl	0 <sdio_write_blocks>
 210:	e3500000 	cmp	r0, #0
 214:	0a00001b 	beq	288 <write_firmware+0xc8>
 218:	e0855006 	add	r5, r5, r6
 21c:	e155000a 	cmp	r5, sl
 220:	ca000018 	bgt	288 <write_firmware+0xc8>
 224:	e1a00005 	mov	r0, r5
 228:	ebfffffe 	bl	0 <sdio_bak_addr>
 22c:	e59f406c 	ldr	r4, [pc, #108]	; 2a0 <write_firmware+0xe0>
 230:	e0654004 	rsb	r4, r5, r4
 234:	e3540901 	cmp	r4, #16384	; 0x4000
 238:	23a04901 	movcs	r4, #16384	; 0x4000
 23c:	e1b0b344 	asrs	fp, r4, #6
 240:	e1a08000 	mov	r8, r0
 244:	e59f0050 	ldr	r0, [pc, #80]	; 29c <write_firmware+0xdc>
 248:	1affffe4 	bne	1e0 <write_firmware+0x20>
 24c:	e5976000 	ldr	r6, [r7]
 250:	e1a02004 	mov	r2, r4
 254:	e0891006 	add	r1, r9, r6
 258:	e59f003c 	ldr	r0, [pc, #60]	; 29c <write_firmware+0xdc>
 25c:	ebfffffe 	bl	0 <memcpy>
 260:	e0846006 	add	r6, r4, r6
 264:	e1a03004 	mov	r3, r4
 268:	e2881902 	add	r1, r8, #32768	; 0x8000
 26c:	e59f2028 	ldr	r2, [pc, #40]	; 29c <write_firmware+0xdc>
 270:	e3a00001 	mov	r0, #1
 274:	e0855004 	add	r5, r5, r4
 278:	e5876000 	str	r6, [r7]
 27c:	ebfffffe 	bl	0 <sdio_cmd53_write>
 280:	e155000a 	cmp	r5, sl
 284:	daffffe6 	ble	224 <write_firmware+0x64>
 288:	e1a00005 	mov	r0, r5
 28c:	e8bd8ff8 	pop	{r3, r4, r5, r6, r7, r8, r9, sl, fp, pc}
	...
 298:	0005ee83 	.word	0x0005ee83
 29c:	00000000 	.word	0x00000000
 2a0:	0005ee84 	.word	0x0005ee84

000002a4 <write_nvram>:
 2a4:	e92d41f0 	push	{r4, r5, r6, r7, r8, lr}
 2a8:	e3a0091e 	mov	r0, #491520	; 0x78000
 2ac:	e59f6050 	ldr	r6, [pc, #80]	; 304 <write_nvram+0x60>
 2b0:	ebfffffe 	bl	0 <sdio_bak_window>
 2b4:	e3a04000 	mov	r4, #0
 2b8:	e5963000 	ldr	r3, [r6]
 2bc:	e3530000 	cmp	r3, #0
 2c0:	da00000d 	ble	2fc <write_nvram+0x58>
 2c4:	e2867004 	add	r7, r6, #4
 2c8:	e0645003 	rsb	r5, r4, r3
 2cc:	e3550040 	cmp	r5, #64	; 0x40
 2d0:	a3a05040 	movge	r5, #64	; 0x40
 2d4:	e2841cfd 	add	r1, r4, #64768	; 0xfd00
 2d8:	e1a03005 	mov	r3, r5
 2dc:	e0872004 	add	r2, r7, r4
 2e0:	e2811054 	add	r1, r1, #84	; 0x54
 2e4:	e3a00001 	mov	r0, #1
 2e8:	ebfffffe 	bl	0 <sdio_cmd53_write>
 2ec:	e5963000 	ldr	r3, [r6]
 2f0:	e0844005 	add	r4, r4, r5
 2f4:	e1530004 	cmp	r3, r4
 2f8:	cafffff2 	bgt	2c8 <write_nvram+0x24>
 2fc:	e1a00004 	mov	r0, r4
 300:	e8bd81f0 	pop	{r4, r5, r6, r7, r8, pc}
 304:	00000000 	.word	0x00000000

00000308 <sdio_init>:
 308:	e92d4030 	push	{r4, r5, lr}
 30c:	e24ddf89 	sub	sp, sp, #548	; 0x224
 310:	e3a04000 	mov	r4, #0
 314:	e1a03004 	mov	r3, r4
 318:	e1a02004 	mov	r2, r4
 31c:	e3a01006 	mov	r1, #6
 320:	e58d4004 	str	r4, [sp, #4]
 324:	e58d4000 	str	r4, [sp]
 328:	e1a00004 	mov	r0, r4
 32c:	ebfffffe 	bl	0 <sdio_cmd52>
 330:	e59f0660 	ldr	r0, [pc, #1632]	; 998 <sdio_init+0x690>
 334:	ebfffffe 	bl	0 <usdelay>
 338:	e3a03001 	mov	r3, #1
 33c:	e3a02008 	mov	r2, #8
 340:	e3a01006 	mov	r1, #6
 344:	e58d4004 	str	r4, [sp, #4]
 348:	e58d4000 	str	r4, [sp]
 34c:	e1a00004 	mov	r0, r4
 350:	ebfffffe 	bl	0 <sdio_cmd52>
 354:	e59f063c 	ldr	r0, [pc, #1596]	; 998 <sdio_init+0x690>
 358:	ebfffffe 	bl	0 <usdelay>
 35c:	e1a02004 	mov	r2, r4
 360:	e1a01004 	mov	r1, r4
 364:	e1a00004 	mov	r0, r4
 368:	ebfffffe 	bl	0 <sdio_cmd>
 36c:	e1a02004 	mov	r2, r4
 370:	e59f1624 	ldr	r1, [pc, #1572]	; 99c <sdio_init+0x694>
 374:	e3a00008 	mov	r0, #8
 378:	ebfffffe 	bl	0 <sdio_cmd>
 37c:	e1a02004 	mov	r2, r4
 380:	e1a01004 	mov	r1, r4
 384:	e3a00005 	mov	r0, #5
 388:	ebfffffe 	bl	0 <sdio_cmd>
 38c:	e1a02004 	mov	r2, r4
 390:	e3a01602 	mov	r1, #2097152	; 0x200000
 394:	e3a00005 	mov	r0, #5
 398:	ebfffffe 	bl	0 <sdio_cmd>
 39c:	e28d2010 	add	r2, sp, #16
 3a0:	e1a01004 	mov	r1, r4
 3a4:	e3a00003 	mov	r0, #3
 3a8:	ebfffffe 	bl	0 <sdio_cmd>
 3ac:	e59d5010 	ldr	r5, [sp, #16]
 3b0:	e1a01004 	mov	r1, r4
 3b4:	e1a05425 	lsr	r5, r5, #8
 3b8:	e6ff3075 	uxth	r3, r5
 3bc:	e1a05403 	lsl	r5, r3, #8
 3c0:	e6ff5075 	uxth	r5, r5
 3c4:	e1855423 	orr	r5, r5, r3, lsr #8
 3c8:	e1a00005 	mov	r0, r5
 3cc:	ebfffffe 	bl	0 <sdio_cmd7>
 3d0:	e3a03001 	mov	r3, #1
 3d4:	e3a02003 	mov	r2, #3
 3d8:	e3a01013 	mov	r1, #19
 3dc:	e1a00004 	mov	r0, r4
 3e0:	ebfffffe 	bl	0 <sdio_cmd52_writes>
 3e4:	e3a03001 	mov	r3, #1
 3e8:	e3a02042 	mov	r2, #66	; 0x42
 3ec:	e3a01007 	mov	r1, #7
 3f0:	e1a00004 	mov	r0, r4
 3f4:	ebfffffe 	bl	0 <sdio_cmd52_writes>
 3f8:	e3a03002 	mov	r3, #2
 3fc:	e3a02040 	mov	r2, #64	; 0x40
 400:	e3a01e11 	mov	r1, #272	; 0x110
 404:	e1a00004 	mov	r0, r4
 408:	ebfffffe 	bl	0 <sdio_cmd52_writes>
 40c:	e3a03002 	mov	r3, #2
 410:	e3a02c02 	mov	r2, #512	; 0x200
 414:	e3a01e21 	mov	r1, #528	; 0x210
 418:	e1a00004 	mov	r0, r4
 41c:	ebfffffe 	bl	0 <sdio_cmd52_writes>
 420:	e3a02002 	mov	r2, #2
 424:	e1a01002 	mov	r1, r2
 428:	e3a03001 	mov	r3, #1
 42c:	e1a00004 	mov	r0, r4
 430:	ebfffffe 	bl	0 <sdio_cmd52_writes>
 434:	e3a03001 	mov	r3, #1
 438:	e58d3000 	str	r3, [sp]
 43c:	e1a00004 	mov	r0, r4
 440:	e3a03002 	mov	r3, #2
 444:	e3a020ff 	mov	r2, #255	; 0xff
 448:	e3a01003 	mov	r1, #3
 44c:	ebfffffe 	bl	0 <sdio_cmd52_reads_check>
 450:	e1500004 	cmp	r0, r4
 454:	0a000149 	beq	980 <sdio_init+0x678>
 458:	e3a00306 	mov	r0, #402653184	; 0x18000000
 45c:	ebfffffe 	bl	0 <sdio_bak_window>
 460:	e28d200c 	add	r2, sp, #12
 464:	e3a03004 	mov	r3, #4
 468:	e3a01902 	mov	r1, #32768	; 0x8000
 46c:	e3a00001 	mov	r0, #1
 470:	ebfffffe 	bl	0 <sdio_cmd53_read>
 474:	e3a03001 	mov	r3, #1
 478:	e1a00003 	mov	r0, r3
 47c:	e3a02028 	mov	r2, #40	; 0x28
 480:	e59f1518 	ldr	r1, [pc, #1304]	; 9a0 <sdio_init+0x698>
 484:	ebfffffe 	bl	0 <sdio_cmd52_writes>
 488:	e3a03001 	mov	r3, #1
 48c:	e28d200c 	add	r2, sp, #12
 490:	e1a00003 	mov	r0, r3
 494:	e59f1504 	ldr	r1, [pc, #1284]	; 9a0 <sdio_init+0x698>
 498:	ebfffffe 	bl	0 <sdio_cmd52_reads>
 49c:	e3a03001 	mov	r3, #1
 4a0:	e1a00003 	mov	r0, r3
 4a4:	e3a02021 	mov	r2, #33	; 0x21
 4a8:	e59f14f0 	ldr	r1, [pc, #1264]	; 9a0 <sdio_init+0x698>
 4ac:	ebfffffe 	bl	0 <sdio_cmd52_writes>
 4b0:	e3a03001 	mov	r3, #1
 4b4:	e1a00003 	mov	r0, r3
 4b8:	e3a02000 	mov	r2, #0
 4bc:	e59f14e0 	ldr	r1, [pc, #1248]	; 9a4 <sdio_init+0x69c>
 4c0:	ebfffffe 	bl	0 <sdio_cmd52_writes>
 4c4:	e28d200c 	add	r2, sp, #12
 4c8:	e3a03004 	mov	r3, #4
 4cc:	e3a01902 	mov	r1, #32768	; 0x8000
 4d0:	e3a00001 	mov	r0, #1
 4d4:	ebfffffe 	bl	0 <sdio_cmd53_read>
 4d8:	e28d200c 	add	r2, sp, #12
 4dc:	e3a03004 	mov	r3, #4
 4e0:	e59f14c0 	ldr	r1, [pc, #1216]	; 9a8 <sdio_init+0x6a0>
 4e4:	e3a00001 	mov	r0, #1
 4e8:	ebfffffe 	bl	0 <sdio_cmd53_read>
 4ec:	e3a01003 	mov	r1, #3
 4f0:	e59f04b4 	ldr	r0, [pc, #1204]	; 9ac <sdio_init+0x6a4>
 4f4:	ebfffffe 	bl	0 <sdio_bak_write32>
 4f8:	e3a01007 	mov	r1, #7
 4fc:	e59f04ac 	ldr	r0, [pc, #1196]	; 9b0 <sdio_init+0x6a8>
 500:	ebfffffe 	bl	0 <sdio_bak_write32>
 504:	e3a01000 	mov	r1, #0
 508:	e59f04a4 	ldr	r0, [pc, #1188]	; 9b4 <sdio_init+0x6ac>
 50c:	ebfffffe 	bl	0 <sdio_bak_write32>
 510:	e3a01005 	mov	r1, #5
 514:	e59f0494 	ldr	r0, [pc, #1172]	; 9b0 <sdio_init+0x6a8>
 518:	ebfffffe 	bl	0 <sdio_bak_write32>
 51c:	e3a01003 	mov	r1, #3
 520:	e59f0490 	ldr	r0, [pc, #1168]	; 9b8 <sdio_init+0x6b0>
 524:	ebfffffe 	bl	0 <sdio_bak_write32>
 528:	e3a01000 	mov	r1, #0
 52c:	e59f0488 	ldr	r0, [pc, #1160]	; 9bc <sdio_init+0x6b4>
 530:	ebfffffe 	bl	0 <sdio_bak_write32>
 534:	e3a01001 	mov	r1, #1
 538:	e59f0478 	ldr	r0, [pc, #1144]	; 9b8 <sdio_init+0x6b0>
 53c:	ebfffffe 	bl	0 <sdio_bak_write32>
 540:	e28d100c 	add	r1, sp, #12
 544:	e59f046c 	ldr	r0, [pc, #1132]	; 9b8 <sdio_init+0x6b0>
 548:	ebfffffe 	bl	0 <sdio_bak_read32>
 54c:	e3500000 	cmp	r0, #0
 550:	0a000002 	beq	560 <sdio_init+0x258>
 554:	e5dd300c 	ldrb	r3, [sp, #12]
 558:	e3530001 	cmp	r3, #1
 55c:	0a000000 	beq	564 <sdio_init+0x25c>
 560:	ebfffffe 	bl	0 <disp_log_break>
 564:	e3a01003 	mov	r1, #3
 568:	e59f0450 	ldr	r0, [pc, #1104]	; 9c0 <sdio_init+0x6b8>
 56c:	ebfffffe 	bl	0 <sdio_bak_write32>
 570:	e3a01000 	mov	r1, #0
 574:	e59f0448 	ldr	r0, [pc, #1096]	; 9c4 <sdio_init+0x6bc>
 578:	ebfffffe 	bl	0 <sdio_bak_write32>
 57c:	e28d100c 	add	r1, sp, #12
 580:	e59f0430 	ldr	r0, [pc, #1072]	; 9b8 <sdio_init+0x6b0>
 584:	ebfffffe 	bl	0 <sdio_bak_read32>
 588:	e3500000 	cmp	r0, #0
 58c:	0a000002 	beq	59c <sdio_init+0x294>
 590:	e5dd300c 	ldrb	r3, [sp, #12]
 594:	e3530001 	cmp	r3, #1
 598:	0a000000 	beq	5a0 <sdio_init+0x298>
 59c:	ebfffffe 	bl	0 <disp_log_break>
 5a0:	e28d100c 	add	r1, sp, #12
 5a4:	e59f0410 	ldr	r0, [pc, #1040]	; 9bc <sdio_init+0x6b4>
 5a8:	ebfffffe 	bl	0 <sdio_bak_read32>
 5ac:	e3500000 	cmp	r0, #0
 5b0:	0a0000f0 	beq	978 <sdio_init+0x670>
 5b4:	e5dd300c 	ldrb	r3, [sp, #12]
 5b8:	e3530000 	cmp	r3, #0
 5bc:	1a0000ed 	bne	978 <sdio_init+0x670>
 5c0:	e28d100c 	add	r1, sp, #12
 5c4:	e59f03fc 	ldr	r0, [pc, #1020]	; 9c8 <sdio_init+0x6c0>
 5c8:	ebfffffe 	bl	0 <sdio_bak_read32>
 5cc:	e3a01000 	mov	r1, #0
 5d0:	e59f03e8 	ldr	r0, [pc, #1000]	; 9c0 <sdio_init+0x6b8>
 5d4:	ebfffffe 	bl	0 <sdio_bak_write32>
 5d8:	e28d100c 	add	r1, sp, #12
 5dc:	e59f03e8 	ldr	r0, [pc, #1000]	; 9cc <sdio_init+0x6c4>
 5e0:	ebfffffe 	bl	0 <sdio_bak_read32>
 5e4:	e3a01001 	mov	r1, #1
 5e8:	e59f03d0 	ldr	r0, [pc, #976]	; 9c0 <sdio_init+0x6b8>
 5ec:	ebfffffe 	bl	0 <sdio_bak_write32>
 5f0:	e28d100c 	add	r1, sp, #12
 5f4:	e59f03d0 	ldr	r0, [pc, #976]	; 9cc <sdio_init+0x6c4>
 5f8:	ebfffffe 	bl	0 <sdio_bak_read32>
 5fc:	e3a01002 	mov	r1, #2
 600:	e59f03b8 	ldr	r0, [pc, #952]	; 9c0 <sdio_init+0x6b8>
 604:	ebfffffe 	bl	0 <sdio_bak_write32>
 608:	e28d100c 	add	r1, sp, #12
 60c:	e59f03b8 	ldr	r0, [pc, #952]	; 9cc <sdio_init+0x6c4>
 610:	ebfffffe 	bl	0 <sdio_bak_read32>
 614:	e3a01003 	mov	r1, #3
 618:	e59f03a0 	ldr	r0, [pc, #928]	; 9c0 <sdio_init+0x6b8>
 61c:	ebfffffe 	bl	0 <sdio_bak_write32>
 620:	e3a03001 	mov	r3, #1
 624:	e58d3000 	str	r3, [sp]
 628:	e3a020ff 	mov	r2, #255	; 0xff
 62c:	e3a010f1 	mov	r1, #241	; 0xf1
 630:	e3a00000 	mov	r0, #0
 634:	ebfffffe 	bl	0 <sdio_cmd52_reads_check>
 638:	e3500000 	cmp	r0, #0
 63c:	0a0000d3 	beq	990 <sdio_init+0x688>
 640:	e3a03001 	mov	r3, #1
 644:	e3a02003 	mov	r2, #3
 648:	e3a010f1 	mov	r1, #241	; 0xf1
 64c:	e3a00000 	mov	r0, #0
 650:	ebfffffe 	bl	0 <sdio_cmd52_writes>
 654:	e3a03004 	mov	r3, #4
 658:	e28d200c 	add	r2, sp, #12
 65c:	e3a01c86 	mov	r1, #34304	; 0x8600
 660:	e3a00001 	mov	r0, #1
 664:	ebfffffe 	bl	0 <sdio_cmd53_read>
 668:	e5ddc00d 	ldrb	ip, [sp, #13]
 66c:	e3a03004 	mov	r3, #4
 670:	e28d200c 	add	r2, sp, #12
 674:	e38cc040 	orr	ip, ip, #64	; 0x40
 678:	e3a01c86 	mov	r1, #34304	; 0x8600
 67c:	e3a00001 	mov	r0, #1
 680:	e5cdc00d 	strb	ip, [sp, #13]
 684:	ebfffffe 	bl	0 <sdio_cmd53_write>
 688:	e3a02002 	mov	r2, #2
 68c:	e1a01002 	mov	r1, r2
 690:	e3a03001 	mov	r3, #1
 694:	e3a00000 	mov	r0, #0
 698:	ebfffffe 	bl	0 <sdio_cmd52_writes>
 69c:	e3a03001 	mov	r3, #1
 6a0:	e1a00003 	mov	r0, r3
 6a4:	e3a02000 	mov	r2, #0
 6a8:	e59f12f0 	ldr	r1, [pc, #752]	; 9a0 <sdio_init+0x698>
 6ac:	ebfffffe 	bl	0 <sdio_cmd52_writes>
 6b0:	e59f0318 	ldr	r0, [pc, #792]	; 9d0 <sdio_init+0x6c8>
 6b4:	ebfffffe 	bl	0 <usdelay>
 6b8:	e3a03001 	mov	r3, #1
 6bc:	e1a00003 	mov	r0, r3
 6c0:	e3a02008 	mov	r2, #8
 6c4:	e59f12d4 	ldr	r1, [pc, #724]	; 9a0 <sdio_init+0x698>
 6c8:	ebfffffe 	bl	0 <sdio_cmd52_writes>
 6cc:	e3a00001 	mov	r0, #1
 6d0:	e58d0000 	str	r0, [sp]
 6d4:	e3a03048 	mov	r3, #72	; 0x48
 6d8:	e3a020ff 	mov	r2, #255	; 0xff
 6dc:	e59f12bc 	ldr	r1, [pc, #700]	; 9a0 <sdio_init+0x698>
 6e0:	ebfffffe 	bl	0 <sdio_cmd52_reads_check>
 6e4:	e3500000 	cmp	r0, #0
 6e8:	0a0000a6 	beq	988 <sdio_init+0x680>
 6ec:	ebfffffe 	bl	1c0 <write_firmware>
 6f0:	e3a00916 	mov	r0, #360448	; 0x58000
 6f4:	ebfffffe 	bl	0 <sdio_bak_window>
 6f8:	e28d2018 	add	r2, sp, #24
 6fc:	e3a03004 	mov	r3, #4
 700:	e59f12cc 	ldr	r1, [pc, #716]	; 9d4 <sdio_init+0x6cc>
 704:	e3a00001 	mov	r0, #1
 708:	ebfffffe 	bl	0 <sdio_cmd53_read>
 70c:	ebfffffe 	bl	2a4 <write_nvram>
 710:	e28d2018 	add	r2, sp, #24
 714:	e3a0302c 	mov	r3, #44	; 0x2c
 718:	e59f12b8 	ldr	r1, [pc, #696]	; 9d8 <sdio_init+0x6d0>
 71c:	e3a00001 	mov	r0, #1
 720:	ebfffffe 	bl	0 <sdio_cmd53_read>
 724:	e28d100c 	add	r1, sp, #12
 728:	e59f0288 	ldr	r0, [pc, #648]	; 9b8 <sdio_init+0x6b0>
 72c:	ebfffffe 	bl	0 <sdio_bak_read32>
 730:	e28d100c 	add	r1, sp, #12
 734:	e59f0280 	ldr	r0, [pc, #640]	; 9bc <sdio_init+0x6b4>
 738:	ebfffffe 	bl	0 <sdio_bak_read32>
 73c:	e3e01000 	mvn	r1, #0
 740:	e59f0294 	ldr	r0, [pc, #660]	; 9dc <sdio_init+0x6d4>
 744:	ebfffffe 	bl	0 <sdio_bak_write32>
 748:	e3a01003 	mov	r1, #3
 74c:	e59f0258 	ldr	r0, [pc, #600]	; 9ac <sdio_init+0x6a4>
 750:	ebfffffe 	bl	0 <sdio_bak_write32>
 754:	e3a01000 	mov	r1, #0
 758:	e59f0280 	ldr	r0, [pc, #640]	; 9e0 <sdio_init+0x6d8>
 75c:	ebfffffe 	bl	0 <sdio_bak_write32>
 760:	e3a01001 	mov	r1, #1
 764:	e59f0240 	ldr	r0, [pc, #576]	; 9ac <sdio_init+0x6a4>
 768:	ebfffffe 	bl	0 <sdio_bak_write32>
 76c:	e28d100c 	add	r1, sp, #12
 770:	e59f0234 	ldr	r0, [pc, #564]	; 9ac <sdio_init+0x6a4>
 774:	ebfffffe 	bl	0 <sdio_bak_read32>
 778:	e3a00306 	mov	r0, #402653184	; 0x18000000
 77c:	ebfffffe 	bl	0 <sdio_bak_window>
 780:	e3a03001 	mov	r3, #1
 784:	e1a00003 	mov	r0, r3
 788:	e3a02000 	mov	r2, #0
 78c:	e59f120c 	ldr	r1, [pc, #524]	; 9a0 <sdio_init+0x698>
 790:	ebfffffe 	bl	0 <sdio_cmd52_writes>
 794:	e3a03001 	mov	r3, #1
 798:	e1a00003 	mov	r0, r3
 79c:	e3a02010 	mov	r2, #16
 7a0:	e59f11f8 	ldr	r1, [pc, #504]	; 9a0 <sdio_init+0x698>
 7a4:	ebfffffe 	bl	0 <sdio_cmd52_writes>
 7a8:	e3a03001 	mov	r3, #1
 7ac:	e1a00003 	mov	r0, r3
 7b0:	e28d200c 	add	r2, sp, #12
 7b4:	e59f11e4 	ldr	r1, [pc, #484]	; 9a0 <sdio_init+0x698>
 7b8:	ebfffffe 	bl	0 <sdio_cmd52_reads>
 7bc:	e59f0220 	ldr	r0, [pc, #544]	; 9e4 <sdio_init+0x6dc>
 7c0:	ebfffffe 	bl	0 <usdelay>
 7c4:	e3a03001 	mov	r3, #1
 7c8:	e1a00003 	mov	r0, r3
 7cc:	e28d200c 	add	r2, sp, #12
 7d0:	e59f11c8 	ldr	r1, [pc, #456]	; 9a0 <sdio_init+0x698>
 7d4:	ebfffffe 	bl	0 <sdio_cmd52_reads>
 7d8:	e3500000 	cmp	r0, #0
 7dc:	0a000002 	beq	7ec <sdio_init+0x4e4>
 7e0:	e5dd300c 	ldrb	r3, [sp, #12]
 7e4:	e35300d0 	cmp	r3, #208	; 0xd0
 7e8:	0a000000 	beq	7f0 <sdio_init+0x4e8>
 7ec:	ebfffffe 	bl	0 <disp_log_break>
 7f0:	e3a03001 	mov	r3, #1
 7f4:	e1a00003 	mov	r0, r3
 7f8:	e3a020d2 	mov	r2, #210	; 0xd2
 7fc:	e59f119c 	ldr	r1, [pc, #412]	; 9a0 <sdio_init+0x698>
 800:	ebfffffe 	bl	0 <sdio_cmd52_writes>
 804:	e3a01701 	mov	r1, #262144	; 0x40000
 808:	e59f01d8 	ldr	r0, [pc, #472]	; 9e8 <sdio_init+0x6e0>
 80c:	ebfffffe 	bl	0 <sdio_bak_write32>
 810:	e3a03001 	mov	r3, #1
 814:	e3a02006 	mov	r2, #6
 818:	e3a01002 	mov	r1, #2
 81c:	e3a00000 	mov	r0, #0
 820:	ebfffffe 	bl	0 <sdio_cmd52_writes>
 824:	e3a03001 	mov	r3, #1
 828:	e28d200c 	add	r2, sp, #12
 82c:	e3a01003 	mov	r1, #3
 830:	e3a00000 	mov	r0, #0
 834:	ebfffffe 	bl	0 <sdio_cmd52_reads>
 838:	e59f01ac 	ldr	r0, [pc, #428]	; 9ec <sdio_init+0x6e4>
 83c:	ebfffffe 	bl	0 <usdelay>
 840:	e3a03001 	mov	r3, #1
 844:	e28d200c 	add	r2, sp, #12
 848:	e3a01003 	mov	r1, #3
 84c:	e3a00000 	mov	r0, #0
 850:	ebfffffe 	bl	0 <sdio_cmd52_reads>
 854:	e3500000 	cmp	r0, #0
 858:	0a000002 	beq	868 <sdio_init+0x560>
 85c:	e5dd300c 	ldrb	r3, [sp, #12]
 860:	e3530006 	cmp	r3, #6
 864:	0a000000 	beq	86c <sdio_init+0x564>
 868:	ebfffffe 	bl	0 <disp_log_break>
 86c:	e59f117c 	ldr	r1, [pc, #380]	; 9f0 <sdio_init+0x6e8>
 870:	e59f017c 	ldr	r0, [pc, #380]	; 9f4 <sdio_init+0x6ec>
 874:	ebfffffe 	bl	0 <sdio_bak_write32>
 878:	e28d100c 	add	r1, sp, #12
 87c:	e59f0174 	ldr	r0, [pc, #372]	; 9f8 <sdio_init+0x6f0>
 880:	ebfffffe 	bl	0 <sdio_bak_read32>
 884:	e3a00306 	mov	r0, #402653184	; 0x18000000
 888:	ebfffffe 	bl	0 <sdio_bak_window>
 88c:	e3a03001 	mov	r3, #1
 890:	e1a00003 	mov	r0, r3
 894:	e3a02002 	mov	r2, #2
 898:	e59f115c 	ldr	r1, [pc, #348]	; 9fc <sdio_init+0x6f4>
 89c:	ebfffffe 	bl	0 <sdio_cmd52_writes>
 8a0:	e3a03001 	mov	r3, #1
 8a4:	e3a02006 	mov	r2, #6
 8a8:	e3a010f0 	mov	r1, #240	; 0xf0
 8ac:	e3a00000 	mov	r0, #0
 8b0:	ebfffffe 	bl	0 <sdio_cmd52_writes>
 8b4:	e3a03001 	mov	r3, #1
 8b8:	e3a02007 	mov	r2, #7
 8bc:	e3a01004 	mov	r1, #4
 8c0:	e3a00000 	mov	r0, #0
 8c4:	ebfffffe 	bl	0 <sdio_cmd52_writes>
 8c8:	e28d200c 	add	r2, sp, #12
 8cc:	e3a03001 	mov	r3, #1
 8d0:	e3a01005 	mov	r1, #5
 8d4:	e3a00000 	mov	r0, #0
 8d8:	ebfffffe 	bl	0 <sdio_cmd52_reads>
 8dc:	e28d100c 	add	r1, sp, #12
 8e0:	e59f00f4 	ldr	r0, [pc, #244]	; 9dc <sdio_init+0x6d4>
 8e4:	ebfffffe 	bl	0 <sdio_bak_read32>
 8e8:	e59f1110 	ldr	r1, [pc, #272]	; a00 <sdio_init+0x6f8>
 8ec:	e59f00e8 	ldr	r0, [pc, #232]	; 9dc <sdio_init+0x6d4>
 8f0:	ebfffffe 	bl	0 <sdio_bak_write32>
 8f4:	e28d100c 	add	r1, sp, #12
 8f8:	e59f0104 	ldr	r0, [pc, #260]	; a04 <sdio_init+0x6fc>
 8fc:	ebfffffe 	bl	0 <sdio_bak_read32>
 900:	e3a01002 	mov	r1, #2
 904:	e59f00fc 	ldr	r0, [pc, #252]	; a08 <sdio_init+0x700>
 908:	ebfffffe 	bl	0 <sdio_bak_write32>
 90c:	e28d100c 	add	r1, sp, #12
 910:	e59f00e0 	ldr	r0, [pc, #224]	; 9f8 <sdio_init+0x6f0>
 914:	ebfffffe 	bl	0 <sdio_bak_read32>
 918:	e28d100c 	add	r1, sp, #12
 91c:	e59f00e8 	ldr	r0, [pc, #232]	; a0c <sdio_init+0x704>
 920:	ebfffffe 	bl	0 <sdio_bak_read32>
 924:	e3a0090e 	mov	r0, #229376	; 0x38000
 928:	ebfffffe 	bl	0 <sdio_bak_window>
 92c:	e28d2018 	add	r2, sp, #24
 930:	e3a03040 	mov	r3, #64	; 0x40
 934:	e59f10d4 	ldr	r1, [pc, #212]	; a10 <sdio_init+0x708>
 938:	e3a00001 	mov	r0, #1
 93c:	ebfffffe 	bl	0 <sdio_cmd53_read>
 940:	e28d100c 	add	r1, sp, #12
 944:	e59f0090 	ldr	r0, [pc, #144]	; 9dc <sdio_init+0x6d4>
 948:	ebfffffe 	bl	0 <sdio_bak_read32>
 94c:	e3a01080 	mov	r1, #128	; 0x80
 950:	e59f0084 	ldr	r0, [pc, #132]	; 9dc <sdio_init+0x6d4>
 954:	ebfffffe 	bl	0 <sdio_bak_write32>
 958:	e28d2018 	add	r2, sp, #24
 95c:	e3a03040 	mov	r3, #64	; 0x40
 960:	e3a01902 	mov	r1, #32768	; 0x8000
 964:	e3a00002 	mov	r0, #2
 968:	ebfffffe 	bl	0 <sdio_cmd53_read>
 96c:	e1a00005 	mov	r0, r5
 970:	e28ddf89 	add	sp, sp, #548	; 0x224
 974:	e8bd8030 	pop	{r4, r5, pc}
 978:	ebfffffe 	bl	0 <disp_log_break>
 97c:	eaffff0f 	b	5c0 <sdio_init+0x2b8>
 980:	ebfffffe 	bl	0 <disp_log_break>
 984:	eafffeb3 	b	458 <sdio_init+0x150>
 988:	ebfffffe 	bl	0 <disp_log_break>
 98c:	eaffff56 	b	6ec <sdio_init+0x3e4>
 990:	ebfffffe 	bl	0 <disp_log_break>
 994:	eaffff29 	b	640 <sdio_init+0x338>
 998:	00004e20 	.word	0x00004e20
 99c:	000001aa 	.word	0x000001aa
 9a0:	0001000e 	.word	0x0001000e
 9a4:	0001000f 	.word	0x0001000f
 9a8:	000080fc 	.word	0x000080fc
 9ac:	18103408 	.word	0x18103408
 9b0:	18101408 	.word	0x18101408
 9b4:	18101800 	.word	0x18101800
 9b8:	18104408 	.word	0x18104408
 9bc:	18104800 	.word	0x18104800
 9c0:	18004010 	.word	0x18004010
 9c4:	18004044 	.word	0x18004044
 9c8:	18004000 	.word	0x18004000
 9cc:	18004040 	.word	0x18004040
 9d0:	0000afc8 	.word	0x0000afc8
 9d4:	0000ee80 	.word	0x0000ee80
 9d8:	0000ffd4 	.word	0x0000ffd4
 9dc:	18002020 	.word	0x18002020
 9e0:	18103800 	.word	0x18103800
 9e4:	0000c350 	.word	0x0000c350
 9e8:	18002048 	.word	0x18002048
 9ec:	000186a0 	.word	0x000186a0
 9f0:	200000f0 	.word	0x200000f0
 9f4:	18002024 	.word	0x18002024
 9f8:	18000508 	.word	0x18000508
 9fc:	0001001e 	.word	0x0001001e
 a00:	200000c0 	.word	0x200000c0
 a04:	1800204c 	.word	0x1800204c
 a08:	18002040 	.word	0x18002040
 a0c:	0006fffc 	.word	0x0006fffc
 a10:	000070d4 	.word	0x000070d4

00000a14 <sd_setup>:
 a14:	e92d4010 	push	{r4, lr}
 a18:	e3a02000 	mov	r2, #0
 a1c:	e3a01001 	mov	r1, #1
 a20:	e3a00022 	mov	r0, #34	; 0x22
 a24:	ebfffffe 	bl	0 <gpio_set>
 a28:	e3a02002 	mov	r2, #2
 a2c:	e3a01000 	mov	r1, #0
 a30:	e3a00023 	mov	r0, #35	; 0x23
 a34:	ebfffffe 	bl	0 <gpio_set>
 a38:	e3a02002 	mov	r2, #2
 a3c:	e3a01000 	mov	r1, #0
 a40:	e3a00024 	mov	r0, #36	; 0x24
 a44:	ebfffffe 	bl	0 <gpio_set>
 a48:	e3a02002 	mov	r2, #2
 a4c:	e3a01000 	mov	r1, #0
 a50:	e3a00025 	mov	r0, #37	; 0x25
 a54:	ebfffffe 	bl	0 <gpio_set>
 a58:	e3a02002 	mov	r2, #2
 a5c:	e3a01000 	mov	r1, #0
 a60:	e3a00026 	mov	r0, #38	; 0x26
 a64:	ebfffffe 	bl	0 <gpio_set>
 a68:	e3a02002 	mov	r2, #2
 a6c:	e3a01000 	mov	r1, #0
 a70:	e3a00027 	mov	r0, #39	; 0x27
 a74:	e8bd4010 	pop	{r4, lr}
 a78:	eafffffe 	b	0 <gpio_set>

Disassembly of section .text.startup:

00000000 <main>:
   0:	e92d43f0 	push	{r4, r5, r6, r7, r8, r9, lr}
   4:	ed2d8b02 	vpush	{d8}
   8:	e3a04000 	mov	r4, #0
   c:	e24dd09c 	sub	sp, sp, #156	; 0x9c
  10:	e28d5018 	add	r5, sp, #24
  14:	e58d4000 	str	r4, [sp]
  18:	ebfffffe 	bl	0 <ustime>
  1c:	e3a02080 	mov	r2, #128	; 0x80
  20:	e1a01004 	mov	r1, r4
  24:	e1a08000 	mov	r8, r0
  28:	e1a00005 	mov	r0, r5
  2c:	ebfffffe 	bl	0 <memset>
  30:	e58d4004 	str	r4, [sp, #4]
  34:	e58d4007 	str	r4, [sp, #7]
  38:	ebfffffe 	bl	0 <crc7_init>
  3c:	ebfffffe 	bl	0 <qcrc16r_init>
  40:	e1a01004 	mov	r1, r4
  44:	e1a0000d 	mov	r0, sp
  48:	ebfffffe 	bl	0 <ustimeout>
  4c:	e59f0494 	ldr	r0, [pc, #1172]	; 4e8 <main+0x4e8>
  50:	ebfffffe 	bl	0 <puts>
  54:	ebfffffe 	bl	0 <__getreent>
  58:	e5900008 	ldr	r0, [r0, #8]
  5c:	ebfffffe 	bl	0 <fflush>
  60:	ebfffffe 	bl	0 <osc_init>
  64:	e1a02004 	mov	r2, r4
  68:	e3a01001 	mov	r1, #1
  6c:	e3a0002f 	mov	r0, #47	; 0x2f
  70:	ebfffffe 	bl	0 <gpio_set>
  74:	ebfffffe 	bl	a14 <sd_setup>
  78:	e3a01001 	mov	r1, #1
  7c:	e3a00029 	mov	r0, #41	; 0x29
  80:	ebfffffe 	bl	0 <gpio_out>
  84:	e59f0460 	ldr	r0, [pc, #1120]	; 4ec <main+0x4ec>
  88:	ebfffffe 	bl	0 <flash_init>
  8c:	e59f0458 	ldr	r0, [pc, #1112]	; 4ec <main+0x4ec>
  90:	ebfffffe 	bl	0 <usdelay>
  94:	e3a00002 	mov	r0, #2
  98:	ebfffffe 	bl	0 <log_enable>
  9c:	ebfffffe 	bl	308 <main+0x308>
  a0:	e1a02005 	mov	r2, r5
  a4:	e3a03040 	mov	r3, #64	; 0x40
  a8:	e3a01902 	mov	r1, #32768	; 0x8000
  ac:	e3a00002 	mov	r0, #2
  b0:	ebfffffe 	bl	0 <sdio_cmd53_read>
  b4:	e1a01004 	mov	r1, r4
  b8:	e28d2004 	add	r2, sp, #4
  bc:	e3a03006 	mov	r3, #6
  c0:	e59f0428 	ldr	r0, [pc, #1064]	; 4f0 <main+0x4f0>
  c4:	ebfffffe 	bl	0 <ioctl_get_data>
  c8:	e1a04000 	mov	r4, r0
  cc:	e59f0420 	ldr	r0, [pc, #1056]	; 4f4 <main+0x4f4>
  d0:	ebfffffe 	bl	0 <printf>
  d4:	e3540000 	cmp	r4, #0
  d8:	0a0000fd 	beq	4d4 <main+0x4d4>
  dc:	e28d0004 	add	r0, sp, #4
  e0:	ebfffffe 	bl	c0 <main+0xc0>
  e4:	e3a03080 	mov	r3, #128	; 0x80
  e8:	e1a02005 	mov	r2, r5
  ec:	e3a01000 	mov	r1, #0
  f0:	e59f0400 	ldr	r0, [pc, #1024]	; 4f8 <main+0x4f8>
  f4:	ebfffffe 	bl	0 <ioctl_get_data>
  f8:	e59f13fc 	ldr	r1, [pc, #1020]	; 4fc <main+0x4fc>
  fc:	e3500000 	cmp	r0, #0
 100:	11a01005 	movne	r1, r5
 104:	e59f03f4 	ldr	r0, [pc, #1012]	; 500 <main+0x500>
 108:	ebfffffe 	bl	0 <printf>
 10c:	e3a0300c 	mov	r3, #12
 110:	e59f23ec 	ldr	r2, [pc, #1004]	; 504 <main+0x504>
 114:	e3a01064 	mov	r1, #100	; 0x64
 118:	e59f03e8 	ldr	r0, [pc, #1000]	; 508 <main+0x508>
 11c:	ebfffffe 	bl	0 <ioctl_set_data>
 120:	e3500000 	cmp	r0, #0
 124:	1a000001 	bne	130 <main+0x130>
 128:	e59f03dc 	ldr	r0, [pc, #988]	; 50c <main+0x50c>
 12c:	ebfffffe 	bl	0 <puts>
 130:	e3a02000 	mov	r2, #0
 134:	e3a010c8 	mov	r1, #200	; 0xc8
 138:	e3a00002 	mov	r0, #2
 13c:	ebfffffe 	bl	0 <ioctl_wr_int32>
 140:	e3500000 	cmp	r0, #0
 144:	1a000004 	bne	15c <main+0x15c>
 148:	e59f03c0 	ldr	r0, [pc, #960]	; 510 <main+0x510>
 14c:	ebfffffe 	bl	0 <puts>
 150:	ebfffffe 	bl	0 <__getreent>
 154:	e5900008 	ldr	r0, [r0, #8]
 158:	ebfffffe 	bl	0 <fflush>
 15c:	e59f03b0 	ldr	r0, [pc, #944]	; 514 <main+0x514>
 160:	ebfffffe 	bl	0 <ioctl_enable_evts>
 164:	e3a02001 	mov	r2, #1
 168:	e3a01032 	mov	r1, #50	; 0x32
 16c:	e3a00014 	mov	r0, #20
 170:	ebfffffe 	bl	0 <ioctl_wr_int32>
 174:	e3500000 	cmp	r0, #0
 178:	1a000003 	bne	18c <main+0x18c>
 17c:	e59f2394 	ldr	r2, [pc, #916]	; 518 <main+0x518>
 180:	e59f1394 	ldr	r1, [pc, #916]	; 51c <main+0x51c>
 184:	e59f0394 	ldr	r0, [pc, #916]	; 520 <main+0x520>
 188:	ebfffffe 	bl	0 <printf>
 18c:	e3a02000 	mov	r2, #0
 190:	e1a01002 	mov	r1, r2
 194:	e3a00016 	mov	r0, #22
 198:	ebfffffe 	bl	0 <ioctl_wr_int32>
 19c:	e3500000 	cmp	r0, #0
 1a0:	1a000003 	bne	1b4 <main+0x1b4>
 1a4:	e59f2378 	ldr	r2, [pc, #888]	; 524 <main+0x524>
 1a8:	e59f136c 	ldr	r1, [pc, #876]	; 51c <main+0x51c>
 1ac:	e59f036c 	ldr	r0, [pc, #876]	; 520 <main+0x520>
 1b0:	ebfffffe 	bl	0 <printf>
 1b4:	e3a02006 	mov	r2, #6
 1b8:	e3a01000 	mov	r1, #0
 1bc:	e3a00086 	mov	r0, #134	; 0x86
 1c0:	ebfffffe 	bl	0 <ioctl_wr_int32>
 1c4:	e3500000 	cmp	r0, #0
 1c8:	1a000003 	bne	1dc <main+0x1dc>
 1cc:	e59f2354 	ldr	r2, [pc, #852]	; 528 <main+0x528>
 1d0:	e59f1344 	ldr	r1, [pc, #836]	; 51c <main+0x51c>
 1d4:	e59f0344 	ldr	r0, [pc, #836]	; 520 <main+0x520>
 1d8:	ebfffffe 	bl	0 <printf>
 1dc:	e3a02000 	mov	r2, #0
 1e0:	e1a01002 	mov	r1, r2
 1e4:	e3a03001 	mov	r3, #1
 1e8:	e59f033c 	ldr	r0, [pc, #828]	; 52c <main+0x52c>
 1ec:	ebfffffe 	bl	0 <ioctl_set_intx2>
 1f0:	e3500000 	cmp	r0, #0
 1f4:	1a000003 	bne	208 <main+0x208>
 1f8:	e59f2330 	ldr	r2, [pc, #816]	; 530 <main+0x530>
 1fc:	e59f1330 	ldr	r1, [pc, #816]	; 534 <main+0x534>
 200:	e59f0318 	ldr	r0, [pc, #792]	; 520 <main+0x520>
 204:	ebfffffe 	bl	0 <printf>
 208:	e3a02000 	mov	r2, #0
 20c:	e1a01002 	mov	r1, r2
 210:	e3e03000 	mvn	r3, #0
 214:	e59f031c 	ldr	r0, [pc, #796]	; 538 <main+0x538>
 218:	ebfffffe 	bl	0 <ioctl_set_intx2>
 21c:	e3500000 	cmp	r0, #0
 220:	1a000003 	bne	234 <main+0x234>
 224:	e59f2310 	ldr	r2, [pc, #784]	; 53c <main+0x53c>
 228:	e59f1304 	ldr	r1, [pc, #772]	; 534 <main+0x534>
 22c:	e59f02ec 	ldr	r0, [pc, #748]	; 520 <main+0x520>
 230:	ebfffffe 	bl	0 <printf>
 234:	e3a02000 	mov	r2, #0
 238:	e1a01002 	mov	r1, r2
 23c:	e59f32fc 	ldr	r3, [pc, #764]	; 540 <main+0x540>
 240:	e59f02fc 	ldr	r0, [pc, #764]	; 544 <main+0x544>
 244:	ebfffffe 	bl	0 <ioctl_set_intx2>
 248:	e3500000 	cmp	r0, #0
 24c:	1a000003 	bne	260 <main+0x260>
 250:	e59f22f0 	ldr	r2, [pc, #752]	; 548 <main+0x548>
 254:	e59f12d8 	ldr	r1, [pc, #728]	; 534 <main+0x534>
 258:	e59f02c0 	ldr	r0, [pc, #704]	; 520 <main+0x520>
 25c:	ebfffffe 	bl	0 <printf>
 260:	e3a03044 	mov	r3, #68	; 0x44
 264:	e59f22e0 	ldr	r2, [pc, #736]	; 54c <main+0x54c>
 268:	e3a01000 	mov	r1, #0
 26c:	e3a00f43 	mov	r0, #268	; 0x10c
 270:	ebfffffe 	bl	0 <ioctl_wr_data>
 274:	e3500000 	cmp	r0, #0
 278:	1a000003 	bne	28c <main+0x28c>
 27c:	e59f22cc 	ldr	r2, [pc, #716]	; 550 <main+0x550>
 280:	e59f12cc 	ldr	r1, [pc, #716]	; 554 <main+0x554>
 284:	e59f0294 	ldr	r0, [pc, #660]	; 520 <main+0x520>
 288:	ebfffffe 	bl	0 <printf>
 28c:	e3a02080 	mov	r2, #128	; 0x80
 290:	e3a01000 	mov	r1, #0
 294:	e3a000a5 	mov	r0, #165	; 0xa5
 298:	ebfffffe 	bl	0 <ioctl_wr_int32>
 29c:	e3500000 	cmp	r0, #0
 2a0:	1a000003 	bne	2b4 <main+0x2b4>
 2a4:	e59f22ac 	ldr	r2, [pc, #684]	; 558 <main+0x558>
 2a8:	e59f126c 	ldr	r1, [pc, #620]	; 51c <main+0x51c>
 2ac:	e59f026c 	ldr	r0, [pc, #620]	; 520 <main+0x520>
 2b0:	ebfffffe 	bl	0 <printf>
 2b4:	e59f02a0 	ldr	r0, [pc, #672]	; 55c <main+0x55c>
 2b8:	ebfffffe 	bl	0 <ioctl_enable_evts>
 2bc:	e3a03024 	mov	r3, #36	; 0x24
 2c0:	e59f2298 	ldr	r2, [pc, #664]	; 560 <main+0x560>
 2c4:	e3a01064 	mov	r1, #100	; 0x64
 2c8:	e3a0001a 	mov	r0, #26
 2cc:	ebfffffe 	bl	0 <ioctl_wr_data>
 2d0:	e3500000 	cmp	r0, #0
 2d4:	1a000003 	bne	2e8 <main+0x2e8>
 2d8:	e59f2284 	ldr	r2, [pc, #644]	; 564 <main+0x564>
 2dc:	e59f1270 	ldr	r1, [pc, #624]	; 554 <main+0x554>
 2e0:	e59f0238 	ldr	r0, [pc, #568]	; 520 <main+0x520>
 2e4:	ebfffffe 	bl	0 <printf>
 2e8:	ed9f8b7c 	vldr	d8, [pc, #496]	; 4e0 <main+0x4e0>
 2ec:	e59f4274 	ldr	r4, [pc, #628]	; 568 <main+0x568>
 2f0:	e59f7274 	ldr	r7, [pc, #628]	; 56c <main+0x56c>
 2f4:	e3a06000 	mov	r6, #0
 2f8:	e3a00001 	mov	r0, #1
 2fc:	ebfffffe 	bl	0 <usdelay>
 300:	e5d43000 	ldrb	r3, [r4]
 304:	e16f3f13 	clz	r3, r3
 308:	e1a032a3 	lsr	r3, r3, #5
 30c:	e1a01003 	mov	r1, r3
 310:	e3a00022 	mov	r0, #34	; 0x22
 314:	e5c43000 	strb	r3, [r4]
 318:	ebfffffe 	bl	0 <gpio_out>
 31c:	e59f124c 	ldr	r1, [pc, #588]	; 570 <main+0x570>
 320:	e1a0000d 	mov	r0, sp
 324:	ebfffffe 	bl	0 <ustimeout>
 328:	e3500000 	cmp	r0, #0
 32c:	0afffff1 	beq	2f8 <main+0x2f8>
 330:	e2265001 	eor	r5, r6, #1
 334:	e2055001 	and	r5, r5, #1
 338:	e1a01005 	mov	r1, r5
 33c:	e3a0002f 	mov	r0, #47	; 0x2f
 340:	ebfffffe 	bl	0 <gpio_out>
 344:	e3560000 	cmp	r6, #0
 348:	0a000006 	beq	368 <main+0x368>
 34c:	e3a0002e 	mov	r0, #46	; 0x2e
 350:	ebfffffe 	bl	0 <putchar>
 354:	ebfffffe 	bl	0 <__getreent>
 358:	e5900008 	ldr	r0, [r0, #8]
 35c:	ebfffffe 	bl	0 <fflush>
 360:	e1a06005 	mov	r6, r5
 364:	eaffffe3 	b	2f8 <main+0x2f8>
 368:	e3a02d19 	mov	r2, #1600	; 0x640
 36c:	e59f11f8 	ldr	r1, [pc, #504]	; 56c <main+0x56c>
 370:	e28d000c 	add	r0, sp, #12
 374:	ebfffffe 	bl	0 <ioctl_get_event>
 378:	e2506000 	subs	r6, r0, #0
 37c:	dafffff7 	ble	360 <main+0x360>
 380:	ebfffffe 	bl	0 <ustime>
 384:	e0683000 	rsb	r3, r8, r0
 388:	e59f01e4 	ldr	r0, [pc, #484]	; 574 <main+0x574>
 38c:	ee073a10 	vmov	s14, r3
 390:	eeb87bc7 	vcvt.f64.s32	d7, s14
 394:	ee876b08 	vdiv.f64	d6, d7, d8
 398:	ec532b16 	vmov	r2, r3, d6
 39c:	ebfffffe 	bl	0 <printf>
 3a0:	e1a02006 	mov	r2, r6
 3a4:	e59f11cc 	ldr	r1, [pc, #460]	; 578 <main+0x578>
 3a8:	e28d000c 	add	r0, sp, #12
 3ac:	ebfffffe 	bl	0 <disp_fields>
 3b0:	e3a0000a 	mov	r0, #10
 3b4:	ebfffffe 	bl	0 <putchar>
 3b8:	e3a0100c 	mov	r1, #12
 3bc:	e08d0001 	add	r0, sp, r1
 3c0:	ebfffffe 	bl	0 <disp_bytes>
 3c4:	e3a0000a 	mov	r0, #10
 3c8:	ebfffffe 	bl	0 <putchar>
 3cc:	e3a0200e 	mov	r2, #14
 3d0:	e59f11a4 	ldr	r1, [pc, #420]	; 57c <main+0x57c>
 3d4:	e59f01a4 	ldr	r0, [pc, #420]	; 580 <main+0x580>
 3d8:	ebfffffe 	bl	0 <disp_fields>
 3dc:	e5d71016 	ldrb	r1, [r7, #22]
 3e0:	e5d73017 	ldrb	r3, [r7, #23]
 3e4:	e59f2198 	ldr	r2, [pc, #408]	; 584 <main+0x584>
 3e8:	e1833401 	orr	r3, r3, r1, lsl #8
 3ec:	e1530002 	cmp	r3, r2
 3f0:	0a000007 	beq	414 <main+0x414>
 3f4:	e3a0000a 	mov	r0, #10
 3f8:	ebfffffe 	bl	0 <putchar>
 3fc:	e1a01006 	mov	r1, r6
 400:	e59f0164 	ldr	r0, [pc, #356]	; 56c <main+0x56c>
 404:	ebfffffe 	bl	118 <main+0x118>
 408:	e3a0000a 	mov	r0, #10
 40c:	ebfffffe 	bl	0 <putchar>
 410:	eaffffd2 	b	360 <main+0x360>
 414:	e3a0200a 	mov	r2, #10
 418:	e59f1168 	ldr	r1, [pc, #360]	; 588 <main+0x588>
 41c:	e59f0168 	ldr	r0, [pc, #360]	; 58c <main+0x58c>
 420:	ebfffffe 	bl	0 <disp_fields>
 424:	e3a0000a 	mov	r0, #10
 428:	ebfffffe 	bl	0 <putchar>
 42c:	e3a02030 	mov	r2, #48	; 0x30
 430:	e59f1158 	ldr	r1, [pc, #344]	; 590 <main+0x590>
 434:	e59f0158 	ldr	r0, [pc, #344]	; 594 <main+0x594>
 438:	ebfffffe 	bl	0 <disp_fields>
 43c:	e5d70027 	ldrb	r0, [r7, #39]	; 0x27
 440:	e5d72026 	ldrb	r2, [r7, #38]	; 0x26
 444:	e5d73028 	ldrb	r3, [r7, #40]	; 0x28
 448:	e5d71029 	ldrb	r1, [r7, #41]	; 0x29
 44c:	e1822400 	orr	r2, r2, r0, lsl #8
 450:	e1823803 	orr	r3, r2, r3, lsl #16
 454:	e1833c01 	orr	r3, r3, r1, lsl #24
 458:	e1a00c23 	lsr	r0, r3, #24
 45c:	e1a02403 	lsl	r2, r3, #8
 460:	e20228ff 	and	r2, r2, #16711680	; 0xff0000
 464:	e1800c03 	orr	r0, r0, r3, lsl #24
 468:	e1a03423 	lsr	r3, r3, #8
 46c:	e1800002 	orr	r0, r0, r2
 470:	e2033cff 	and	r3, r3, #65280	; 0xff00
 474:	e1800003 	orr	r0, r0, r3
 478:	ebfffffe 	bl	0 <ioctl_evt_str>
 47c:	e5d7202a 	ldrb	r2, [r7, #42]	; 0x2a
 480:	e5d7302c 	ldrb	r3, [r7, #44]	; 0x2c
 484:	e5d7102d 	ldrb	r1, [r7, #45]	; 0x2d
 488:	e1a09000 	mov	r9, r0
 48c:	e5d7002b 	ldrb	r0, [r7, #43]	; 0x2b
 490:	e1822400 	orr	r2, r2, r0, lsl #8
 494:	e1823803 	orr	r3, r2, r3, lsl #16
 498:	e1833c01 	orr	r3, r3, r1, lsl #24
 49c:	e1a00c23 	lsr	r0, r3, #24
 4a0:	e1a02403 	lsl	r2, r3, #8
 4a4:	e20228ff 	and	r2, r2, #16711680	; 0xff0000
 4a8:	e1800c03 	orr	r0, r0, r3, lsl #24
 4ac:	e1a03423 	lsr	r3, r3, #8
 4b0:	e1800002 	orr	r0, r0, r2
 4b4:	e2033cff 	and	r3, r3, #65280	; 0xff00
 4b8:	e1800003 	orr	r0, r0, r3
 4bc:	ebfffffe 	bl	0 <ioctl_evt_status_str>
 4c0:	e1a01009 	mov	r1, r9
 4c4:	e1a02000 	mov	r2, r0
 4c8:	e59f00c8 	ldr	r0, [pc, #200]	; 598 <main+0x598>
 4cc:	ebfffffe 	bl	0 <printf>
 4d0:	eaffffc7 	b	3f4 <main+0x3f4>
 4d4:	e59f00c0 	ldr	r0, [pc, #192]	; 59c <main+0x59c>
 4d8:	ebfffffe 	bl	0 <printf>
 4dc:	eaffff00 	b	e4 <main+0xe4>
 4e0:	00000000 	.word	0x00000000
 4e4:	412e8480 	.word	0x412e8480
 4e8:	00000040 	.word	0x00000040
 4ec:	00002710 	.word	0x00002710
 4f0:	00000060 	.word	0x00000060
 4f4:	00000070 	.word	0x00000070
 4f8:	0000008c 	.word	0x0000008c
 4fc:	00000030 	.word	0x00000030
 500:	00000090 	.word	0x00000090
 504:	000002b4 	.word	0x000002b4
 508:	000000a0 	.word	0x000000a0
 50c:	000000a8 	.word	0x000000a8
 510:	000000bc 	.word	0x000000bc
 514:	000002c0 	.word	0x000002c0
 518:	000000d4 	.word	0x000000d4
 51c:	000000e4 	.word	0x000000e4
 520:	000000f4 	.word	0x000000f4
 524:	00000108 	.word	0x00000108
 528:	00000118 	.word	0x00000118
 52c:	00000128 	.word	0x00000128
 530:	00000138 	.word	0x00000138
 534:	0000014c 	.word	0x0000014c
 538:	0000015c 	.word	0x0000015c
 53c:	00000174 	.word	0x00000174
 540:	000009c4 	.word	0x000009c4
 544:	00000190 	.word	0x00000190
 548:	000001a4 	.word	0x000001a4
 54c:	000002c8 	.word	0x000002c8
 550:	000001bc 	.word	0x000001bc
 554:	000001d0 	.word	0x000001d0
 558:	000001e0 	.word	0x000001e0
 55c:	0000030c 	.word	0x0000030c
 560:	00000344 	.word	0x00000344
 564:	000001f4 	.word	0x000001f4
	...
 570:	00004e20 	.word	0x00004e20
 574:	00000204 	.word	0x00000204
 578:	00000000 	.word	0x00000000
 57c:	00000368 	.word	0x00000368
 580:	0000000a 	.word	0x0000000a
 584:	0000886c 	.word	0x0000886c
 588:	00000380 	.word	0x00000380
 58c:	00000018 	.word	0x00000018
 590:	0000039c 	.word	0x0000039c
 594:	00000022 	.word	0x00000022
 598:	0000020c 	.word	0x0000020c
 59c:	00000080 	.word	0x00000080

zscan.o:     file format elf32-littlearm


Disassembly of section .text:

00000000 <disp_ssid>:
   0:	e5d01000 	ldrb	r1, [r0]
   4:	e3510000 	cmp	r1, #0
   8:	0a00001a 	beq	78 <disp_ssid+0x78>
   c:	e5d03001 	ldrb	r3, [r0, #1]
  10:	e3530000 	cmp	r3, #0
  14:	0a000017 	beq	78 <disp_ssid+0x78>
  18:	e3510020 	cmp	r1, #32
  1c:	ca000023 	bgt	b0 <disp_ssid+0xb0>
  20:	e92d41f0 	push	{r4, r5, r6, r7, r8, lr}
  24:	e1a04000 	mov	r4, r0
  28:	e0806001 	add	r6, r0, r1
  2c:	e1540006 	cmp	r4, r6
  30:	0a00000f 	beq	74 <disp_ssid+0x74>
  34:	ebfffffe 	bl	0 <__getreent>
  38:	e5f45001 	ldrb	r5, [r4, #1]!
  3c:	e1a07000 	mov	r7, r0
  40:	ebfffffe 	bl	0 <__getreent>
  44:	e5902008 	ldr	r2, [r0, #8]
  48:	e5923008 	ldr	r3, [r2, #8]
  4c:	e2433001 	sub	r3, r3, #1
  50:	e3530000 	cmp	r3, #0
  54:	e5823008 	str	r3, [r2, #8]
  58:	ba000008 	blt	80 <disp_ssid+0x80>
  5c:	e5923000 	ldr	r3, [r2]
  60:	e1540006 	cmp	r4, r6
  64:	e2831001 	add	r1, r3, #1
  68:	e5821000 	str	r1, [r2]
  6c:	e5c35000 	strb	r5, [r3]
  70:	1affffef 	bne	34 <disp_ssid+0x34>
  74:	e8bd81f0 	pop	{r4, r5, r6, r7, r8, pc}
  78:	e59f0038 	ldr	r0, [pc, #56]	; b8 <disp_ssid+0xb8>
  7c:	eafffffe 	b	0 <printf>
  80:	e5921018 	ldr	r1, [r2, #24]
  84:	e1530001 	cmp	r3, r1
  88:	b3a03000 	movlt	r3, #0
  8c:	a3a03001 	movge	r3, #1
  90:	e355000a 	cmp	r5, #10
  94:	03a03000 	moveq	r3, #0
  98:	e3530000 	cmp	r3, #0
  9c:	1affffee 	bne	5c <disp_ssid+0x5c>
  a0:	e1a01005 	mov	r1, r5
  a4:	e1a00007 	mov	r0, r7
  a8:	ebfffffe 	bl	0 <__swbuf_r>
  ac:	eaffffde 	b	2c <disp_ssid+0x2c>
  b0:	e59f0004 	ldr	r0, [pc, #4]	; bc <disp_ssid+0xbc>
  b4:	eafffffe 	b	0 <printf>
  b8:	00000000 	.word	0x00000000
  bc:	0000000c 	.word	0x0000000c

000000c0 <disp_mac_addr>:
  c0:	e92d4070 	push	{r4, r5, r6, lr}
  c4:	e1a05000 	mov	r5, r0
  c8:	e3a04001 	mov	r4, #1
  cc:	ea000001 	b	d8 <disp_mac_addr+0x18>
  d0:	e2844001 	add	r4, r4, #1
  d4:	e2855001 	add	r5, r5, #1
  d8:	e3540001 	cmp	r4, #1
  dc:	e59f1028 	ldr	r1, [pc, #40]	; 10c <disp_mac_addr+0x4c>
  e0:	e59f0028 	ldr	r0, [pc, #40]	; 110 <disp_mac_addr+0x50>
  e4:	e5d52000 	ldrb	r2, [r5]
  e8:	0a000003 	beq	fc <disp_mac_addr+0x3c>
  ec:	ebfffffe 	bl	0 <printf>
  f0:	e3540006 	cmp	r4, #6
  f4:	1afffff5 	bne	d0 <disp_mac_addr+0x10>
  f8:	e8bd8070 	pop	{r4, r5, r6, pc}
  fc:	e59f1010 	ldr	r1, [pc, #16]	; 114 <disp_mac_addr+0x54>
 100:	e59f0008 	ldr	r0, [pc, #8]	; 110 <disp_mac_addr+0x50>
 104:	ebfffffe 	bl	0 <printf>
 108:	eafffff0 	b	d0 <disp_mac_addr+0x10>
 10c:	00000020 	.word	0x00000020
 110:	00000024 	.word	0x00000024
 114:	0000002c 	.word	0x0000002c

00000118 <disp_block>:
 118:	e3510000 	cmp	r1, #0
 11c:	d12fff1e 	bxle	lr
 120:	e92d41f0 	push	{r4, r5, r6, r7, r8, lr}
 124:	e1a06001 	mov	r6, r1
 128:	e59f703c 	ldr	r7, [pc, #60]	; 16c <disp_block+0x54>
 12c:	e3a05000 	mov	r5, #0
 130:	e0654006 	rsb	r4, r5, r6
 134:	e3540020 	cmp	r4, #32
 138:	a3a04020 	movge	r4, #32
 13c:	e1a01004 	mov	r1, r4
 140:	e0870005 	add	r0, r7, r5
 144:	ebfffffe 	bl	0 <disp_bytes>
 148:	e3a0000a 	mov	r0, #10
 14c:	ebfffffe 	bl	0 <putchar>
 150:	ebfffffe 	bl	0 <__getreent>
 154:	e0855004 	add	r5, r5, r4
 158:	e5900008 	ldr	r0, [r0, #8]
 15c:	ebfffffe 	bl	0 <fflush>
 160:	e1560005 	cmp	r6, r5
 164:	cafffff1 	bgt	130 <disp_block+0x18>
 168:	e8bd81f0 	pop	{r4, r5, r6, r7, r8, pc}
 16c:	00000000 	.word	0x00000000

00000170 <gdb_break>:
 170:	e12fff1e 	bx	lr

00000174 <firm_open_read>:
 174:	e59f3004 	ldr	r3, [pc, #4]	; 180 <firm_open_read+0xc>
 178:	e5830000 	str	r0, [r3]
 17c:	e12fff1e 	bx	lr
 180:	00000000 	.word	0x00000000

00000184 <firm_read>:
 184:	e92d4070 	push	{r4, r5, r6, lr}
 188:	e1a05001 	mov	r5, r1
 18c:	e59f4020 	ldr	r4, [pc, #32]	; 1b4 <firm_read+0x30>
 190:	e59f3020 	ldr	r3, [pc, #32]	; 1b8 <firm_read+0x34>
 194:	e1a02005 	mov	r2, r5
 198:	e5941000 	ldr	r1, [r4]
 19c:	e0831001 	add	r1, r3, r1
 1a0:	ebfffffe 	bl	0 <memcpy>
 1a4:	e5941000 	ldr	r1, [r4]
 1a8:	e0811005 	add	r1, r1, r5
 1ac:	e5841000 	str	r1, [r4]
 1b0:	e8bd8070 	pop	{r4, r5, r6, pc}
	...

000001bc <firm_close>:
 1bc:	e12fff1e 	bx	lr

000001c0 <write_firmware>:
 1c0:	e92d4ff8 	push	{r3, r4, r5, r6, r7, r8, r9, sl, fp, lr}
 1c4:	e3a03000 	mov	r3, #0
 1c8:	e59f70c0 	ldr	r7, [pc, #192]	; 290 <write_firmware+0xd0>
 1cc:	e59f90c0 	ldr	r9, [pc, #192]	; 294 <write_firmware+0xd4>
 1d0:	e59fa0c0 	ldr	sl, [pc, #192]	; 298 <write_firmware+0xd8>
 1d4:	e1a05003 	mov	r5, r3
 1d8:	e5873000 	str	r3, [r7]
 1dc:	ea000010 	b	224 <write_firmware+0x64>
 1e0:	e5974000 	ldr	r4, [r7]
 1e4:	e1a0630b 	lsl	r6, fp, #6
 1e8:	e0891004 	add	r1, r9, r4
 1ec:	e1a02006 	mov	r2, r6
 1f0:	ebfffffe 	bl	0 <memcpy>
 1f4:	e0844006 	add	r4, r4, r6
 1f8:	e1a0300b 	mov	r3, fp
 1fc:	e2881902 	add	r1, r8, #32768	; 0x8000
 200:	e59f2094 	ldr	r2, [pc, #148]	; 29c <write_firmware+0xdc>
 204:	e3a00001 	mov	r0, #1
 208:	e5874000 	str	r4, [r7]
 20c:	ebfffffe 	bl	0 <sdio_write_blocks>
 210:	e3500000 	cmp	r0, #0
 214:	0a00001b 	beq	288 <write_firmware+0xc8>
 218:	e0855006 	add	r5, r5, r6
 21c:	e155000a 	cmp	r5, sl
 220:	ca000018 	bgt	288 <write_firmware+0xc8>
 224:	e1a00005 	mov	r0, r5
 228:	ebfffffe 	bl	0 <sdio_bak_addr>
 22c:	e59f406c 	ldr	r4, [pc, #108]	; 2a0 <write_firmware+0xe0>
 230:	e0654004 	rsb	r4, r5, r4
 234:	e3540901 	cmp	r4, #16384	; 0x4000
 238:	23a04901 	movcs	r4, #16384	; 0x4000
 23c:	e1b0b344 	asrs	fp, r4, #6
 240:	e1a08000 	mov	r8, r0
 244:	e59f0050 	ldr	r0, [pc, #80]	; 29c <write_firmware+0xdc>
 248:	1affffe4 	bne	1e0 <write_firmware+0x20>
 24c:	e5976000 	ldr	r6, [r7]
 250:	e1a02004 	mov	r2, r4
 254:	e0891006 	add	r1, r9, r6
 258:	e59f003c 	ldr	r0, [pc, #60]	; 29c <write_firmware+0xdc>
 25c:	ebfffffe 	bl	0 <memcpy>
 260:	e0846006 	add	r6, r4, r6
 264:	e1a03004 	mov	r3, r4
 268:	e2881902 	add	r1, r8, #32768	; 0x8000
 26c:	e59f2028 	ldr	r2, [pc, #40]	; 29c <write_firmware+0xdc>
 270:	e3a00001 	mov	r0, #1
 274:	e0855004 	add	r5, r5, r4
 278:	e5876000 	str	r6, [r7]
 27c:	ebfffffe 	bl	0 <sdio_cmd53_write>
 280:	e155000a 	cmp	r5, sl
 284:	daffffe6 	ble	224 <write_firmware+0x64>
 288:	e1a00005 	mov	r0, r5
 28c:	e8bd8ff8 	pop	{r3, r4, r5, r6, r7, r8, r9, sl, fp, pc}
	...
 298:	0005ee83 	.word	0x0005ee83
 29c:	00000000 	.word	0x00000000
 2a0:	0005ee84 	.word	0x0005ee84

000002a4 <write_nvram>:
 2a4:	e92d41f0 	push	{r4, r5, r6, r7, r8, lr}
 2a8:	e3a0091e 	mov	r0, #491520	; 0x78000
 2ac:	e59f6050 	ldr	r6, [pc, #80]	; 304 <write_nvram+0x60>
 2b0:	ebfffffe 	bl	0 <sdio_bak_window>
 2b4:	e3a04000 	mov	r4, #0
 2b8:	e5963000 	ldr	r3, [r6]
 2bc:	e3530000 	cmp	r3, #0
 2c0:	da00000d 	ble	2fc <write_nvram+0x58>
 2c4:	e2867004 	add	r7, r6, #4
 2c8:	e0645003 	rsb	r5, r4, r3
 2cc:	e3550040 	cmp	r5, #64	; 0x40
 2d0:	a3a05040 	movge	r5, #64	; 0x40
 2d4:	e2841cfd 	add	r1, r4, #64768	; 0xfd00
 2d8:	e1a03005 	mov	r3, r5
 2dc:	e0872004 	add	r2, r7, r4
 2e0:	e2811054 	add	r1, r1, #84	; 0x54
 2e4:	e3a00001 	mov	r0, #1
 2e8:	ebfffffe 	bl	0 <sdio_cmd53_write>
 2ec:	e5963000 	ldr	r3, [r6]
 2f0:	e0844005 	add	r4, r4, r5
 2f4:	e1530004 	cmp	r3, r4
 2f8:	cafffff2 	bgt	2c8 <write_nvram+0x24>
 2fc:	e1a00004 	mov	r0, r4
 300:	e8bd81f0 	pop	{r4, r5, r6, r7, r8, pc}
 304:	00000000 	.word	0x00000000

00000308 <sdio_init>:
 308:	e92d4030 	push	{r4, r5, lr}
 30c:	e24ddf89 	sub	sp, sp, #548	; 0x224
 310:	e3a04000 	mov	r4, #0
 314:	e1a03004 	mov	r3, r4
 318:	e1a02004 	mov	r2, r4
 31c:	e3a01006 	mov	r1, #6
 320:	e58d4004 	str	r4, [sp, #4]
 324:	e58d4000 	str	r4, [sp]
 328:	e1a00004 	mov	r0, r4
 32c:	ebfffffe 	bl	0 <sdio_cmd52>
 330:	e59f0660 	ldr	r0, [pc, #1632]	; 998 <sdio_init+0x690>
 334:	ebfffffe 	bl	0 <usdelay>
 338:	e3a03001 	mov	r3, #1
 33c:	e3a02008 	mov	r2, #8
 340:	e3a01006 	mov	r1, #6
 344:	e58d4004 	str	r4, [sp, #4]
 348:	e58d4000 	str	r4, [sp]
 34c:	e1a00004 	mov	r0, r4
 350:	ebfffffe 	bl	0 <sdio_cmd52>
 354:	e59f063c 	ldr	r0, [pc, #1596]	; 998 <sdio_init+0x690>
 358:	ebfffffe 	bl	0 <usdelay>
 35c:	e1a02004 	mov	r2, r4
 360:	e1a01004 	mov	r1, r4
 364:	e1a00004 	mov	r0, r4
 368:	ebfffffe 	bl	0 <sdio_cmd>
 36c:	e1a02004 	mov	r2, r4
 370:	e59f1624 	ldr	r1, [pc, #1572]	; 99c <sdio_init+0x694>
 374:	e3a00008 	mov	r0, #8
 378:	ebfffffe 	bl	0 <sdio_cmd>
 37c:	e1a02004 	mov	r2, r4
 380:	e1a01004 	mov	r1, r4
 384:	e3a00005 	mov	r0, #5
 388:	ebfffffe 	bl	0 <sdio_cmd>
 38c:	e1a02004 	mov	r2, r4
 390:	e3a01602 	mov	r1, #2097152	; 0x200000
 394:	e3a00005 	mov	r0, #5
 398:	ebfffffe 	bl	0 <sdio_cmd>
 39c:	e28d2010 	add	r2, sp, #16
 3a0:	e1a01004 	mov	r1, r4
 3a4:	e3a00003 	mov	r0, #3
 3a8:	ebfffffe 	bl	0 <sdio_cmd>
 3ac:	e59d5010 	ldr	r5, [sp, #16]
 3b0:	e1a01004 	mov	r1, r4
 3b4:	e1a05425 	lsr	r5, r5, #8
 3b8:	e6ff3075 	uxth	r3, r5
 3bc:	e1a05403 	lsl	r5, r3, #8
 3c0:	e6ff5075 	uxth	r5, r5
 3c4:	e1855423 	orr	r5, r5, r3, lsr #8
 3c8:	e1a00005 	mov	r0, r5
 3cc:	ebfffffe 	bl	0 <sdio_cmd7>
 3d0:	e3a03001 	mov	r3, #1
 3d4:	e3a02003 	mov	r2, #3
 3d8:	e3a01013 	mov	r1, #19
 3dc:	e1a00004 	mov	r0, r4
 3e0:	ebfffffe 	bl	0 <sdio_cmd52_writes>
 3e4:	e3a03001 	mov	r3, #1
 3e8:	e3a02042 	mov	r2, #66	; 0x42
 3ec:	e3a01007 	mov	r1, #7
 3f0:	e1a00004 	mov	r0, r4
 3f4:	ebfffffe 	bl	0 <sdio_cmd52_writes>
 3f8:	e3a03002 	mov	r3, #2
 3fc:	e3a02040 	mov	r2, #64	; 0x40
 400:	e3a01e11 	mov	r1, #272	; 0x110
 404:	e1a00004 	mov	r0, r4
 408:	ebfffffe 	bl	0 <sdio_cmd52_writes>
 40c:	e3a03002 	mov	r3, #2
 410:	e3a02c02 	mov	r2, #512	; 0x200
 414:	e3a01e21 	mov	r1, #528	; 0x210
 418:	e1a00004 	mov	r0, r4
 41c:	ebfffffe 	bl	0 <sdio_cmd52_writes>
 420:	e3a02002 	mov	r2, #2
 424:	e1a01002 	mov	r1, r2
 428:	e3a03001 	mov	r3, #1
 42c:	e1a00004 	mov	r0, r4
 430:	ebfffffe 	bl	0 <sdio_cmd52_writes>
 434:	e3a03001 	mov	r3, #1
 438:	e58d3000 	str	r3, [sp]
 43c:	e1a00004 	mov	r0, r4
 440:	e3a03002 	mov	r3, #2
 444:	e3a020ff 	mov	r2, #255	; 0xff
 448:	e3a01003 	mov	r1, #3
 44c:	ebfffffe 	bl	0 <sdio_cmd52_reads_check>
 450:	e1500004 	cmp	r0, r4
 454:	0a000149 	beq	980 <sdio_init+0x678>
 458:	e3a00306 	mov	r0, #402653184	; 0x18000000
 45c:	ebfffffe 	bl	0 <sdio_bak_window>
 460:	e28d200c 	add	r2, sp, #12
 464:	e3a03004 	mov	r3, #4
 468:	e3a01902 	mov	r1, #32768	; 0x8000
 46c:	e3a00001 	mov	r0, #1
 470:	ebfffffe 	bl	0 <sdio_cmd53_read>
 474:	e3a03001 	mov	r3, #1
 478:	e1a00003 	mov	r0, r3
 47c:	e3a02028 	mov	r2, #40	; 0x28
 480:	e59f1518 	ldr	r1, [pc, #1304]	; 9a0 <sdio_init+0x698>
 484:	ebfffffe 	bl	0 <sdio_cmd52_writes>
 488:	e3a03001 	mov	r3, #1
 48c:	e28d200c 	add	r2, sp, #12
 490:	e1a00003 	mov	r0, r3
 494:	e59f1504 	ldr	r1, [pc, #1284]	; 9a0 <sdio_init+0x698>
 498:	ebfffffe 	bl	0 <sdio_cmd52_reads>
 49c:	e3a03001 	mov	r3, #1
 4a0:	e1a00003 	mov	r0, r3
 4a4:	e3a02021 	mov	r2, #33	; 0x21
 4a8:	e59f14f0 	ldr	r1, [pc, #1264]	; 9a0 <sdio_init+0x698>
 4ac:	ebfffffe 	bl	0 <sdio_cmd52_writes>
 4b0:	e3a03001 	mov	r3, #1
 4b4:	e1a00003 	mov	r0, r3
 4b8:	e3a02000 	mov	r2, #0
 4bc:	e59f14e0 	ldr	r1, [pc, #1248]	; 9a4 <sdio_init+0x69c>
 4c0:	ebfffffe 	bl	0 <sdio_cmd52_writes>
 4c4:	e28d200c 	add	r2, sp, #12
 4c8:	e3a03004 	mov	r3, #4
 4cc:	e3a01902 	mov	r1, #32768	; 0x8000
 4d0:	e3a00001 	mov	r0, #1
 4d4:	ebfffffe 	bl	0 <sdio_cmd53_read>
 4d8:	e28d200c 	add	r2, sp, #12
 4dc:	e3a03004 	mov	r3, #4
 4e0:	e59f14c0 	ldr	r1, [pc, #1216]	; 9a8 <sdio_init+0x6a0>
 4e4:	e3a00001 	mov	r0, #1
 4e8:	ebfffffe 	bl	0 <sdio_cmd53_read>
 4ec:	e3a01003 	mov	r1, #3
 4f0:	e59f04b4 	ldr	r0, [pc, #1204]	; 9ac <sdio_init+0x6a4>
 4f4:	ebfffffe 	bl	0 <sdio_bak_write32>
 4f8:	e3a01007 	mov	r1, #7
 4fc:	e59f04ac 	ldr	r0, [pc, #1196]	; 9b0 <sdio_init+0x6a8>
 500:	ebfffffe 	bl	0 <sdio_bak_write32>
 504:	e3a01000 	mov	r1, #0
 508:	e59f04a4 	ldr	r0, [pc, #1188]	; 9b4 <sdio_init+0x6ac>
 50c:	ebfffffe 	bl	0 <sdio_bak_write32>
 510:	e3a01005 	mov	r1, #5
 514:	e59f0494 	ldr	r0, [pc, #1172]	; 9b0 <sdio_init+0x6a8>
 518:	ebfffffe 	bl	0 <sdio_bak_write32>
 51c:	e3a01003 	mov	r1, #3
 520:	e59f0490 	ldr	r0, [pc, #1168]	; 9b8 <sdio_init+0x6b0>
 524:	ebfffffe 	bl	0 <sdio_bak_write32>
 528:	e3a01000 	mov	r1, #0
 52c:	e59f0488 	ldr	r0, [pc, #1160]	; 9bc <sdio_init+0x6b4>
 530:	ebfffffe 	bl	0 <sdio_bak_write32>
 534:	e3a01001 	mov	r1, #1
 538:	e59f0478 	ldr	r0, [pc, #1144]	; 9b8 <sdio_init+0x6b0>
 53c:	ebfffffe 	bl	0 <sdio_bak_write32>
 540:	e28d100c 	add	r1, sp, #12
 544:	e59f046c 	ldr	r0, [pc, #1132]	; 9b8 <sdio_init+0x6b0>
 548:	ebfffffe 	bl	0 <sdio_bak_read32>
 54c:	e3500000 	cmp	r0, #0
 550:	0a000002 	beq	560 <sdio_init+0x258>
 554:	e5dd300c 	ldrb	r3, [sp, #12]
 558:	e3530001 	cmp	r3, #1
 55c:	0a000000 	beq	564 <sdio_init+0x25c>
 560:	ebfffffe 	bl	0 <disp_log_break>
 564:	e3a01003 	mov	r1, #3
 568:	e59f0450 	ldr	r0, [pc, #1104]	; 9c0 <sdio_init+0x6b8>
 56c:	ebfffffe 	bl	0 <sdio_bak_write32>
 570:	e3a01000 	mov	r1, #0
 574:	e59f0448 	ldr	r0, [pc, #1096]	; 9c4 <sdio_init+0x6bc>
 578:	ebfffffe 	bl	0 <sdio_bak_write32>
 57c:	e28d100c 	add	r1, sp, #12
 580:	e59f0430 	ldr	r0, [pc, #1072]	; 9b8 <sdio_init+0x6b0>
 584:	ebfffffe 	bl	0 <sdio_bak_read32>
 588:	e3500000 	cmp	r0, #0
 58c:	0a000002 	beq	59c <sdio_init+0x294>
 590:	e5dd300c 	ldrb	r3, [sp, #12]
 594:	e3530001 	cmp	r3, #1
 598:	0a000000 	beq	5a0 <sdio_init+0x298>
 59c:	ebfffffe 	bl	0 <disp_log_break>
 5a0:	e28d100c 	add	r1, sp, #12
 5a4:	e59f0410 	ldr	r0, [pc, #1040]	; 9bc <sdio_init+0x6b4>
 5a8:	ebfffffe 	bl	0 <sdio_bak_read32>
 5ac:	e3500000 	cmp	r0, #0
 5b0:	0a0000f0 	beq	978 <sdio_init+0x670>
 5b4:	e5dd300c 	ldrb	r3, [sp, #12]
 5b8:	e3530000 	cmp	r3, #0
 5bc:	1a0000ed 	bne	978 <sdio_init+0x670>
 5c0:	e28d100c 	add	r1, sp, #12
 5c4:	e59f03fc 	ldr	r0, [pc, #1020]	; 9c8 <sdio_init+0x6c0>
 5c8:	ebfffffe 	bl	0 <sdio_bak_read32>
 5cc:	e3a01000 	mov	r1, #0
 5d0:	e59f03e8 	ldr	r0, [pc, #1000]	; 9c0 <sdio_init+0x6b8>
 5d4:	ebfffffe 	bl	0 <sdio_bak_write32>
 5d8:	e28d100c 	add	r1, sp, #12
 5dc:	e59f03e8 	ldr	r0, [pc, #1000]	; 9cc <sdio_init+0x6c4>
 5e0:	ebfffffe 	bl	0 <sdio_bak_read32>
 5e4:	e3a01001 	mov	r1, #1
 5e8:	e59f03d0 	ldr	r0, [pc, #976]	; 9c0 <sdio_init+0x6b8>
 5ec:	ebfffffe 	bl	0 <sdio_bak_write32>
 5f0:	e28d100c 	add	r1, sp, #12
 5f4:	e59f03d0 	ldr	r0, [pc, #976]	; 9cc <sdio_init+0x6c4>
 5f8:	ebfffffe 	bl	0 <sdio_bak_read32>
 5fc:	e3a01002 	mov	r1, #2
 600:	e59f03b8 	ldr	r0, [pc, #952]	; 9c0 <sdio_init+0x6b8>
 604:	ebfffffe 	bl	0 <sdio_bak_write32>
 608:	e28d100c 	add	r1, sp, #12
 60c:	e59f03b8 	ldr	r0, [pc, #952]	; 9cc <sdio_init+0x6c4>
 610:	ebfffffe 	bl	0 <sdio_bak_read32>
 614:	e3a01003 	mov	r1, #3
 618:	e59f03a0 	ldr	r0, [pc, #928]	; 9c0 <sdio_init+0x6b8>
 61c:	ebfffffe 	bl	0 <sdio_bak_write32>
 620:	e3a03001 	mov	r3, #1
 624:	e58d3000 	str	r3, [sp]
 628:	e3a020ff 	mov	r2, #255	; 0xff
 62c:	e3a010f1 	mov	r1, #241	; 0xf1
 630:	e3a00000 	mov	r0, #0
 634:	ebfffffe 	bl	0 <sdio_cmd52_reads_check>
 638:	e3500000 	cmp	r0, #0
 63c:	0a0000d3 	beq	990 <sdio_init+0x688>
 640:	e3a03001 	mov	r3, #1
 644:	e3a02003 	mov	r2, #3
 648:	e3a010f1 	mov	r1, #241	; 0xf1
 64c:	e3a00000 	mov	r0, #0
 650:	ebfffffe 	bl	0 <sdio_cmd52_writes>
 654:	e3a03004 	mov	r3, #4
 658:	e28d200c 	add	r2, sp, #12
 65c:	e3a01c86 	mov	r1, #34304	; 0x8600
 660:	e3a00001 	mov	r0, #1
 664:	ebfffffe 	bl	0 <sdio_cmd53_read>
 668:	e5ddc00d 	ldrb	ip, [sp, #13]
 66c:	e3a03004 	mov	r3, #4
 670:	e28d200c 	add	r2, sp, #12
 674:	e38cc040 	orr	ip, ip, #64	; 0x40
 678:	e3a01c86 	mov	r1, #34304	; 0x8600
 67c:	e3a00001 	mov	r0, #1
 680:	e5cdc00d 	strb	ip, [sp, #13]
 684:	ebfffffe 	bl	0 <sdio_cmd53_write>
 688:	e3a02002 	mov	r2, #2
 68c:	e1a01002 	mov	r1, r2
 690:	e3a03001 	mov	r3, #1
 694:	e3a00000 	mov	r0, #0
 698:	ebfffffe 	bl	0 <sdio_cmd52_writes>
 69c:	e3a03001 	mov	r3, #1
 6a0:	e1a00003 	mov	r0, r3
 6a4:	e3a02000 	mov	r2, #0
 6a8:	e59f12f0 	ldr	r1, [pc, #752]	; 9a0 <sdio_init+0x698>
 6ac:	ebfffffe 	bl	0 <sdio_cmd52_writes>
 6b0:	e59f0318 	ldr	r0, [pc, #792]	; 9d0 <sdio_init+0x6c8>
 6b4:	ebfffffe 	bl	0 <usdelay>
 6b8:	e3a03001 	mov	r3, #1
 6bc:	e1a00003 	mov	r0, r3
 6c0:	e3a02008 	mov	r2, #8
 6c4:	e59f12d4 	ldr	r1, [pc, #724]	; 9a0 <sdio_init+0x698>
 6c8:	ebfffffe 	bl	0 <sdio_cmd52_writes>
 6cc:	e3a00001 	mov	r0, #1
 6d0:	e58d0000 	str	r0, [sp]
 6d4:	e3a03048 	mov	r3, #72	; 0x48
 6d8:	e3a020ff 	mov	r2, #255	; 0xff
 6dc:	e59f12bc 	ldr	r1, [pc, #700]	; 9a0 <sdio_init+0x698>
 6e0:	ebfffffe 	bl	0 <sdio_cmd52_reads_check>
 6e4:	e3500000 	cmp	r0, #0
 6e8:	0a0000a6 	beq	988 <sdio_init+0x680>
 6ec:	ebfffffe 	bl	1c0 <write_firmware>
 6f0:	e3a00916 	mov	r0, #360448	; 0x58000
 6f4:	ebfffffe 	bl	0 <sdio_bak_window>
 6f8:	e28d2018 	add	r2, sp, #24
 6fc:	e3a03004 	mov	r3, #4
 700:	e59f12cc 	ldr	r1, [pc, #716]	; 9d4 <sdio_init+0x6cc>
 704:	e3a00001 	mov	r0, #1
 708:	ebfffffe 	bl	0 <sdio_cmd53_read>
 70c:	ebfffffe 	bl	2a4 <write_nvram>
 710:	e28d2018 	add	r2, sp, #24
 714:	e3a0302c 	mov	r3, #44	; 0x2c
 718:	e59f12b8 	ldr	r1, [pc, #696]	; 9d8 <sdio_init+0x6d0>
 71c:	e3a00001 	mov	r0, #1
 720:	ebfffffe 	bl	0 <sdio_cmd53_read>
 724:	e28d100c 	add	r1, sp, #12
 728:	e59f0288 	ldr	r0, [pc, #648]	; 9b8 <sdio_init+0x6b0>
 72c:	ebfffffe 	bl	0 <sdio_bak_read32>
 730:	e28d100c 	add	r1, sp, #12
 734:	e59f0280 	ldr	r0, [pc, #640]	; 9bc <sdio_init+0x6b4>
 738:	ebfffffe 	bl	0 <sdio_bak_read32>
 73c:	e3e01000 	mvn	r1, #0
 740:	e59f0294 	ldr	r0, [pc, #660]	; 9dc <sdio_init+0x6d4>
 744:	ebfffffe 	bl	0 <sdio_bak_write32>
 748:	e3a01003 	mov	r1, #3
 74c:	e59f0258 	ldr	r0, [pc, #600]	; 9ac <sdio_init+0x6a4>
 750:	ebfffffe 	bl	0 <sdio_bak_write32>
 754:	e3a01000 	mov	r1, #0
 758:	e59f0280 	ldr	r0, [pc, #640]	; 9e0 <sdio_init+0x6d8>
 75c:	ebfffffe 	bl	0 <sdio_bak_write32>
 760:	e3a01001 	mov	r1, #1
 764:	e59f0240 	ldr	r0, [pc, #576]	; 9ac <sdio_init+0x6a4>
 768:	ebfffffe 	bl	0 <sdio_bak_write32>
 76c:	e28d100c 	add	r1, sp, #12
 770:	e59f0234 	ldr	r0, [pc, #564]	; 9ac <sdio_init+0x6a4>
 774:	ebfffffe 	bl	0 <sdio_bak_read32>
 778:	e3a00306 	mov	r0, #402653184	; 0x18000000
 77c:	ebfffffe 	bl	0 <sdio_bak_window>
 780:	e3a03001 	mov	r3, #1
 784:	e1a00003 	mov	r0, r3
 788:	e3a02000 	mov	r2, #0
 78c:	e59f120c 	ldr	r1, [pc, #524]	; 9a0 <sdio_init+0x698>
 790:	ebfffffe 	bl	0 <sdio_cmd52_writes>
 794:	e3a03001 	mov	r3, #1
 798:	e1a00003 	mov	r0, r3
 79c:	e3a02010 	mov	r2, #16
 7a0:	e59f11f8 	ldr	r1, [pc, #504]	; 9a0 <sdio_init+0x698>
 7a4:	ebfffffe 	bl	0 <sdio_cmd52_writes>
 7a8:	e3a03001 	mov	r3, #1
 7ac:	e1a00003 	mov	r0, r3
 7b0:	e28d200c 	add	r2, sp, #12
 7b4:	e59f11e4 	ldr	r1, [pc, #484]	; 9a0 <sdio_init+0x698>
 7b8:	ebfffffe 	bl	0 <sdio_cmd52_reads>
 7bc:	e59f0220 	ldr	r0, [pc, #544]	; 9e4 <sdio_init+0x6dc>
 7c0:	ebfffffe 	bl	0 <usdelay>
 7c4:	e3a03001 	mov	r3, #1
 7c8:	e1a00003 	mov	r0, r3
 7cc:	e28d200c 	add	r2, sp, #12
 7d0:	e59f11c8 	ldr	r1, [pc, #456]	; 9a0 <sdio_init+0x698>
 7d4:	ebfffffe 	bl	0 <sdio_cmd52_reads>
 7d8:	e3500000 	cmp	r0, #0
 7dc:	0a000002 	beq	7ec <sdio_init+0x4e4>
 7e0:	e5dd300c 	ldrb	r3, [sp, #12]
 7e4:	e35300d0 	cmp	r3, #208	; 0xd0
 7e8:	0a000000 	beq	7f0 <sdio_init+0x4e8>
 7ec:	ebfffffe 	bl	0 <disp_log_break>
 7f0:	e3a03001 	mov	r3, #1
 7f4:	e1a00003 	mov	r0, r3
 7f8:	e3a020d2 	mov	r2, #210	; 0xd2
 7fc:	e59f119c 	ldr	r1, [pc, #412]	; 9a0 <sdio_init+0x698>
 800:	ebfffffe 	bl	0 <sdio_cmd52_writes>
 804:	e3a01701 	mov	r1, #262144	; 0x40000
 808:	e59f01d8 	ldr	r0, [pc, #472]	; 9e8 <sdio_init+0x6e0>
 80c:	ebfffffe 	bl	0 <sdio_bak_write32>
 810:	e3a03001 	mov	r3, #1
 814:	e3a02006 	mov	r2, #6
 818:	e3a01002 	mov	r1, #2
 81c:	e3a00000 	mov	r0, #0
 820:	ebfffffe 	bl	0 <sdio_cmd52_writes>
 824:	e3a03001 	mov	r3, #1
 828:	e28d200c 	add	r2, sp, #12
 82c:	e3a01003 	mov	r1, #3
 830:	e3a00000 	mov	r0, #0
 834:	ebfffffe 	bl	0 <sdio_cmd52_reads>
 838:	e59f01ac 	ldr	r0, [pc, #428]	; 9ec <sdio_init+0x6e4>
 83c:	ebfffffe 	bl	0 <usdelay>
 840:	e3a03001 	mov	r3, #1
 844:	e28d200c 	add	r2, sp, #12
 848:	e3a01003 	mov	r1, #3
 84c:	e3a00000 	mov	r0, #0
 850:	ebfffffe 	bl	0 <sdio_cmd52_reads>
 854:	e3500000 	cmp	r0, #0
 858:	0a000002 	beq	868 <sdio_init+0x560>
 85c:	e5dd300c 	ldrb	r3, [sp, #12]
 860:	e3530006 	cmp	r3, #6
 864:	0a000000 	beq	86c <sdio_init+0x564>
 868:	ebfffffe 	bl	0 <disp_log_break>
 86c:	e59f117c 	ldr	r1, [pc, #380]	; 9f0 <sdio_init+0x6e8>
 870:	e59f017c 	ldr	r0, [pc, #380]	; 9f4 <sdio_init+0x6ec>
 874:	ebfffffe 	bl	0 <sdio_bak_write32>
 878:	e28d100c 	add	r1, sp, #12
 87c:	e59f0174 	ldr	r0, [pc, #372]	; 9f8 <sdio_init+0x6f0>
 880:	ebfffffe 	bl	0 <sdio_bak_read32>
 884:	e3a00306 	mov	r0, #402653184	; 0x18000000
 888:	ebfffffe 	bl	0 <sdio_bak_window>
 88c:	e3a03001 	mov	r3, #1
 890:	e1a00003 	mov	r0, r3
 894:	e3a02002 	mov	r2, #2
 898:	e59f115c 	ldr	r1, [pc, #348]	; 9fc <sdio_init+0x6f4>
 89c:	ebfffffe 	bl	0 <sdio_cmd52_writes>
 8a0:	e3a03001 	mov	r3, #1
 8a4:	e3a02006 	mov	r2, #6
 8a8:	e3a010f0 	mov	r1, #240	; 0xf0
 8ac:	e3a00000 	mov	r0, #0
 8b0:	ebfffffe 	bl	0 <sdio_cmd52_writes>
 8b4:	e3a03001 	mov	r3, #1
 8b8:	e3a02007 	mov	r2, #7
 8bc:	e3a01004 	mov	r1, #4
 8c0:	e3a00000 	mov	r0, #0
 8c4:	ebfffffe 	bl	0 <sdio_cmd52_writes>
 8c8:	e28d200c 	add	r2, sp, #12
 8cc:	e3a03001 	mov	r3, #1
 8d0:	e3a01005 	mov	r1, #5
 8d4:	e3a00000 	mov	r0, #0
 8d8:	ebfffffe 	bl	0 <sdio_cmd52_reads>
 8dc:	e28d100c 	add	r1, sp, #12
 8e0:	e59f00f4 	ldr	r0, [pc, #244]	; 9dc <sdio_init+0x6d4>
 8e4:	ebfffffe 	bl	0 <sdio_bak_read32>
 8e8:	e59f1110 	ldr	r1, [pc, #272]	; a00 <sdio_init+0x6f8>
 8ec:	e59f00e8 	ldr	r0, [pc, #232]	; 9dc <sdio_init+0x6d4>
 8f0:	ebfffffe 	bl	0 <sdio_bak_write32>
 8f4:	e28d100c 	add	r1, sp, #12
 8f8:	e59f0104 	ldr	r0, [pc, #260]	; a04 <sdio_init+0x6fc>
 8fc:	ebfffffe 	bl	0 <sdio_bak_read32>
 900:	e3a01002 	mov	r1, #2
 904:	e59f00fc 	ldr	r0, [pc, #252]	; a08 <sdio_init+0x700>
 908:	ebfffffe 	bl	0 <sdio_bak_write32>
 90c:	e28d100c 	add	r1, sp, #12
 910:	e59f00e0 	ldr	r0, [pc, #224]	; 9f8 <sdio_init+0x6f0>
 914:	ebfffffe 	bl	0 <sdio_bak_read32>
 918:	e28d100c 	add	r1, sp, #12
 91c:	e59f00e8 	ldr	r0, [pc, #232]	; a0c <sdio_init+0x704>
 920:	ebfffffe 	bl	0 <sdio_bak_read32>
 924:	e3a0090e 	mov	r0, #229376	; 0x38000
 928:	ebfffffe 	bl	0 <sdio_bak_window>
 92c:	e28d2018 	add	r2, sp, #24
 930:	e3a03040 	mov	r3, #64	; 0x40
 934:	e59f10d4 	ldr	r1, [pc, #212]	; a10 <sdio_init+0x708>
 938:	e3a00001 	mov	r0, #1
 93c:	ebfffffe 	bl	0 <sdio_cmd53_read>
 940:	e28d100c 	add	r1, sp, #12
 944:	e59f0090 	ldr	r0, [pc, #144]	; 9dc <sdio_init+0x6d4>
 948:	ebfffffe 	bl	0 <sdio_bak_read32>
 94c:	e3a01080 	mov	r1, #128	; 0x80
 950:	e59f0084 	ldr	r0, [pc, #132]	; 9dc <sdio_init+0x6d4>
 954:	ebfffffe 	bl	0 <sdio_bak_write32>
 958:	e28d2018 	add	r2, sp, #24
 95c:	e3a03040 	mov	r3, #64	; 0x40
 960:	e3a01902 	mov	r1, #32768	; 0x8000
 964:	e3a00002 	mov	r0, #2
 968:	ebfffffe 	bl	0 <sdio_cmd53_read>
 96c:	e1a00005 	mov	r0, r5
 970:	e28ddf89 	add	sp, sp, #548	; 0x224
 974:	e8bd8030 	pop	{r4, r5, pc}
 978:	ebfffffe 	bl	0 <disp_log_break>
 97c:	eaffff0f 	b	5c0 <sdio_init+0x2b8>
 980:	ebfffffe 	bl	0 <disp_log_break>
 984:	eafffeb3 	b	458 <sdio_init+0x150>
 988:	ebfffffe 	bl	0 <disp_log_break>
 98c:	eaffff56 	b	6ec <sdio_init+0x3e4>
 990:	ebfffffe 	bl	0 <disp_log_break>
 994:	eaffff29 	b	640 <sdio_init+0x338>
 998:	00004e20 	.word	0x00004e20
 99c:	000001aa 	.word	0x000001aa
 9a0:	0001000e 	.word	0x0001000e
 9a4:	0001000f 	.word	0x0001000f
 9a8:	000080fc 	.word	0x000080fc
 9ac:	18103408 	.word	0x18103408
 9b0:	18101408 	.word	0x18101408
 9b4:	18101800 	.word	0x18101800
 9b8:	18104408 	.word	0x18104408
 9bc:	18104800 	.word	0x18104800
 9c0:	18004010 	.word	0x18004010
 9c4:	18004044 	.word	0x18004044
 9c8:	18004000 	.word	0x18004000
 9cc:	18004040 	.word	0x18004040
 9d0:	0000afc8 	.word	0x0000afc8
 9d4:	0000ee80 	.word	0x0000ee80
 9d8:	0000ffd4 	.word	0x0000ffd4
 9dc:	18002020 	.word	0x18002020
 9e0:	18103800 	.word	0x18103800
 9e4:	0000c350 	.word	0x0000c350
 9e8:	18002048 	.word	0x18002048
 9ec:	000186a0 	.word	0x000186a0
 9f0:	200000f0 	.word	0x200000f0
 9f4:	18002024 	.word	0x18002024
 9f8:	18000508 	.word	0x18000508
 9fc:	0001001e 	.word	0x0001001e
 a00:	200000c0 	.word	0x200000c0
 a04:	1800204c 	.word	0x1800204c
 a08:	18002040 	.word	0x18002040
 a0c:	0006fffc 	.word	0x0006fffc
 a10:	000070d4 	.word	0x000070d4

00000a14 <sd_setup>:
 a14:	e92d4010 	push	{r4, lr}
 a18:	e3a02000 	mov	r2, #0
 a1c:	e3a01001 	mov	r1, #1
 a20:	e3a00022 	mov	r0, #34	; 0x22
 a24:	ebfffffe 	bl	0 <gpio_set>
 a28:	e3a02002 	mov	r2, #2
 a2c:	e3a01000 	mov	r1, #0
 a30:	e3a00023 	mov	r0, #35	; 0x23
 a34:	ebfffffe 	bl	0 <gpio_set>
 a38:	e3a02002 	mov	r2, #2
 a3c:	e3a01000 	mov	r1, #0
 a40:	e3a00024 	mov	r0, #36	; 0x24
 a44:	ebfffffe 	bl	0 <gpio_set>
 a48:	e3a02002 	mov	r2, #2
 a4c:	e3a01000 	mov	r1, #0
 a50:	e3a00025 	mov	r0, #37	; 0x25
 a54:	ebfffffe 	bl	0 <gpio_set>
 a58:	e3a02002 	mov	r2, #2
 a5c:	e3a01000 	mov	r1, #0
 a60:	e3a00026 	mov	r0, #38	; 0x26
 a64:	ebfffffe 	bl	0 <gpio_set>
 a68:	e3a02002 	mov	r2, #2
 a6c:	e3a01000 	mov	r1, #0
 a70:	e3a00027 	mov	r0, #39	; 0x27
 a74:	e8bd4010 	pop	{r4, lr}
 a78:	eafffffe 	b	0 <gpio_set>

Disassembly of section .text.startup:

00000000 <main>:
   0:	e92d40f0 	push	{r4, r5, r6, r7, lr}
   4:	e24ddf47 	sub	sp, sp, #284	; 0x11c
   8:	e3a04000 	mov	r4, #0
   c:	e28d5018 	add	r5, sp, #24
  10:	e3a02c01 	mov	r2, #256	; 0x100
  14:	e1a01004 	mov	r1, r4
  18:	e1a00005 	mov	r0, r5
  1c:	e58d4000 	str	r4, [sp]
  20:	ebfffffe 	bl	0 <memset>
  24:	e58d4004 	str	r4, [sp, #4]
  28:	e58d4007 	str	r4, [sp, #7]
  2c:	ebfffffe 	bl	0 <crc7_init>
  30:	ebfffffe 	bl	0 <qcrc16r_init>
  34:	e1a01004 	mov	r1, r4
  38:	e1a0000d 	mov	r0, sp
  3c:	ebfffffe 	bl	0 <ustimeout>
  40:	e59f0220 	ldr	r0, [pc, #544]	; 268 <main+0x268>
  44:	ebfffffe 	bl	0 <puts>
  48:	ebfffffe 	bl	0 <__getreent>
  4c:	e5900008 	ldr	r0, [r0, #8]
  50:	ebfffffe 	bl	0 <fflush>
  54:	ebfffffe 	bl	0 <osc_init>
  58:	e1a02004 	mov	r2, r4
  5c:	e3a01001 	mov	r1, #1
  60:	e3a0002f 	mov	r0, #47	; 0x2f
  64:	ebfffffe 	bl	0 <gpio_set>
  68:	ebfffffe 	bl	a14 <sd_setup>
  6c:	e3a01001 	mov	r1, #1
  70:	e3a00029 	mov	r0, #41	; 0x29
  74:	ebfffffe 	bl	0 <gpio_out>
  78:	e59f01ec 	ldr	r0, [pc, #492]	; 26c <main+0x26c>
  7c:	ebfffffe 	bl	0 <flash_init>
  80:	e59f01e4 	ldr	r0, [pc, #484]	; 26c <main+0x26c>
  84:	ebfffffe 	bl	0 <usdelay>
  88:	e3a00002 	mov	r0, #2
  8c:	ebfffffe 	bl	0 <log_enable>
  90:	ebfffffe 	bl	308 <sdio_init>
  94:	e1a02005 	mov	r2, r5
  98:	e3a03040 	mov	r3, #64	; 0x40
  9c:	e3a01902 	mov	r1, #32768	; 0x8000
  a0:	e3a00002 	mov	r0, #2
  a4:	ebfffffe 	bl	0 <sdio_cmd53_read>
  a8:	e1a01004 	mov	r1, r4
  ac:	e28d2004 	add	r2, sp, #4
  b0:	e3a03006 	mov	r3, #6
  b4:	e59f01b4 	ldr	r0, [pc, #436]	; 270 <main+0x270>
  b8:	ebfffffe 	bl	0 <ioctl_get_data>
  bc:	e1a04000 	mov	r4, r0
  c0:	e59f01ac 	ldr	r0, [pc, #428]	; 274 <main+0x274>
  c4:	ebfffffe 	bl	0 <printf>
  c8:	e3540000 	cmp	r4, #0
  cc:	0a000062 	beq	25c <main+0x25c>
  d0:	e28d0004 	add	r0, sp, #4
  d4:	ebfffffe 	bl	c0 <main+0xc0>
  d8:	e3a03c01 	mov	r3, #256	; 0x100
  dc:	e1a02005 	mov	r2, r5
  e0:	e3a01000 	mov	r1, #0
  e4:	e59f018c 	ldr	r0, [pc, #396]	; 278 <main+0x278>
  e8:	ebfffffe 	bl	0 <ioctl_get_data>
  ec:	e59f1188 	ldr	r1, [pc, #392]	; 27c <main+0x27c>
  f0:	e3500000 	cmp	r0, #0
  f4:	11a01005 	movne	r1, r5
  f8:	e59f0180 	ldr	r0, [pc, #384]	; 280 <main+0x280>
  fc:	ebfffffe 	bl	0 <printf>
 100:	e3a02028 	mov	r2, #40	; 0x28
 104:	e3a01000 	mov	r1, #0
 108:	e3a000b9 	mov	r0, #185	; 0xb9
 10c:	ebfffffe 	bl	0 <ioctl_wr_int32>
 110:	e3a02000 	mov	r2, #0
 114:	e3a010c8 	mov	r1, #200	; 0xc8
 118:	e3a00002 	mov	r0, #2
 11c:	ebfffffe 	bl	0 <ioctl_wr_int32>
 120:	e3500000 	cmp	r0, #0
 124:	1a000004 	bne	13c <main+0x13c>
 128:	e59f0154 	ldr	r0, [pc, #340]	; 284 <main+0x284>
 12c:	ebfffffe 	bl	0 <puts>
 130:	ebfffffe 	bl	0 <__getreent>
 134:	e5900008 	ldr	r0, [r0, #8]
 138:	ebfffffe 	bl	0 <fflush>
 13c:	e3a01000 	mov	r1, #0
 140:	e59f0140 	ldr	r0, [pc, #320]	; 288 <main+0x288>
 144:	ebfffffe 	bl	0 <sdio_bak_write32>
 148:	e1a02005 	mov	r2, r5
 14c:	e3a03040 	mov	r3, #64	; 0x40
 150:	e3a01902 	mov	r1, #32768	; 0x8000
 154:	e3a00002 	mov	r0, #2
 158:	ebfffffe 	bl	0 <sdio_cmd53_read>
 15c:	e59f0128 	ldr	r0, [pc, #296]	; 28c <main+0x28c>
 160:	ebfffffe 	bl	0 <ioctl_enable_evts>
 164:	e3a03084 	mov	r3, #132	; 0x84
 168:	e59f2120 	ldr	r2, [pc, #288]	; 290 <main+0x290>
 16c:	e3a01000 	mov	r1, #0
 170:	e59f011c 	ldr	r0, [pc, #284]	; 294 <main+0x294>
 174:	ebfffffe 	bl	0 <ioctl_set_data>
 178:	e59f4118 	ldr	r4, [pc, #280]	; 298 <main+0x298>
 17c:	e59f7118 	ldr	r7, [pc, #280]	; 29c <main+0x29c>
 180:	e3a06000 	mov	r6, #0
 184:	e3a00001 	mov	r0, #1
 188:	ebfffffe 	bl	0 <usdelay>
 18c:	e5d43000 	ldrb	r3, [r4]
 190:	e16f3f13 	clz	r3, r3
 194:	e1a032a3 	lsr	r3, r3, #5
 198:	e1a01003 	mov	r1, r3
 19c:	e3a00022 	mov	r0, #34	; 0x22
 1a0:	e5c43000 	strb	r3, [r4]
 1a4:	ebfffffe 	bl	0 <gpio_out>
 1a8:	e59f10f0 	ldr	r1, [pc, #240]	; 2a0 <main+0x2a0>
 1ac:	e1a0000d 	mov	r0, sp
 1b0:	ebfffffe 	bl	0 <ustimeout>
 1b4:	e3500000 	cmp	r0, #0
 1b8:	0afffff1 	beq	184 <main+0x184>
 1bc:	e2265001 	eor	r5, r6, #1
 1c0:	e2055001 	and	r5, r5, #1
 1c4:	e1a01005 	mov	r1, r5
 1c8:	e3a0002f 	mov	r0, #47	; 0x2f
 1cc:	ebfffffe 	bl	0 <gpio_out>
 1d0:	e3560000 	cmp	r6, #0
 1d4:	1a000001 	bne	1e0 <main+0x1e0>
 1d8:	e1a06005 	mov	r6, r5
 1dc:	eaffffe8 	b	184 <main+0x184>
 1e0:	e59f10b4 	ldr	r1, [pc, #180]	; 29c <main+0x29c>
 1e4:	e3a02d19 	mov	r2, #1600	; 0x640
 1e8:	e28d000c 	add	r0, sp, #12
 1ec:	ebfffffe 	bl	0 <ioctl_get_event>
 1f0:	e1a03000 	mov	r3, r0
 1f4:	e35300de 	cmp	r3, #222	; 0xde
 1f8:	e1a01000 	mov	r1, r0
 1fc:	e59f00a0 	ldr	r0, [pc, #160]	; 2a4 <main+0x2a4>
 200:	9a00000f 	bls	244 <main+0x244>
 204:	ebfffffe 	bl	0 <printf>
 208:	e59f0098 	ldr	r0, [pc, #152]	; 2a8 <main+0x2a8>
 20c:	ebfffffe 	bl	c0 <main+0xc0>
 210:	e5d710a6 	ldrb	r1, [r7, #166]	; 0xa6
 214:	e5d730a7 	ldrb	r3, [r7, #167]	; 0xa7
 218:	e59f008c 	ldr	r0, [pc, #140]	; 2ac <main+0x2ac>
 21c:	e1831401 	orr	r1, r3, r1, lsl #8
 220:	ebfffffe 	bl	0 <printf>
 224:	e59f0084 	ldr	r0, [pc, #132]	; 2b0 <main+0x2b0>
 228:	ebfffffe 	bl	0 <main>
 22c:	e3a0000a 	mov	r0, #10
 230:	ebfffffe 	bl	0 <putchar>
 234:	ebfffffe 	bl	0 <__getreent>
 238:	e5900008 	ldr	r0, [r0, #8]
 23c:	ebfffffe 	bl	0 <fflush>
 240:	eaffffe4 	b	1d8 <main+0x1d8>
 244:	e3a0002e 	mov	r0, #46	; 0x2e
 248:	ebfffffe 	bl	0 <putchar>
 24c:	ebfffffe 	bl	0 <__getreent>
 250:	e5900008 	ldr	r0, [r0, #8]
 254:	ebfffffe 	bl	0 <fflush>
 258:	eaffffde 	b	1d8 <main+0x1d8>
 25c:	e59f0050 	ldr	r0, [pc, #80]	; 2b4 <main+0x2b4>
 260:	ebfffffe 	bl	0 <printf>
 264:	eaffff9b 	b	d8 <main+0xd8>
 268:	00000040 	.word	0x00000040
 26c:	00002710 	.word	0x00002710
 270:	00000058 	.word	0x00000058
 274:	00000068 	.word	0x00000068
 278:	00000084 	.word	0x00000084
 27c:	00000030 	.word	0x00000030
 280:	00000088 	.word	0x00000088
 284:	00000098 	.word	0x00000098
 288:	18002020 	.word	0x18002020
 28c:	000002b4 	.word	0x000002b4
 290:	000002c4 	.word	0x000002c4
 294:	000000b0 	.word	0x000000b0
	...
 2a0:	000186a0 	.word	0x000186a0
 2a4:	000000b8 	.word	0x000000b8
 2a8:	0000003a 	.word	0x0000003a
 2ac:	000000c4 	.word	0x000000c4
 2b0:	00000070 	.word	0x00000070
 2b4:	00000078 	.word	0x00000078

zw_gpio.o:     file format elf32-littlearm


Disassembly of section .text:

00000000 <flash_open_read>:
   0:	e59f2064 	ldr	r2, [pc, #100]	; 6c <flash_open_read+0x6c>
   4:	e24dd008 	sub	sp, sp, #8
   8:	e1a0c840 	asr	ip, r0, #16
   c:	e1a01440 	asr	r1, r0, #8
  10:	e3a03003 	mov	r3, #3
  14:	e5cd0007 	strb	r0, [sp, #7]
  18:	e5cd1006 	strb	r1, [sp, #6]
  1c:	e5cd3004 	strb	r3, [sp, #4]
  20:	e5cdc005 	strb	ip, [sp, #5]
  24:	e592c000 	ldr	ip, [r2]
  28:	e1a00002 	mov	r0, r2
  2c:	e1a0100d 	mov	r1, sp
  30:	e28d3004 	add	r3, sp, #4
  34:	e38cc080 	orr	ip, ip, #128	; 0x80
  38:	e582c000 	str	ip, [r2]
  3c:	e4d32001 	ldrb	r2, [r3], #1
  40:	e590c000 	ldr	ip, [r0]
  44:	e31c0802 	tst	ip, #131072	; 0x20000
  48:	e5802004 	str	r2, [r0, #4]
  4c:	1a000000 	bne	54 <flash_open_read+0x54>
  50:	eafffffe 	b	50 <flash_open_read+0x50>
  54:	e28dc008 	add	ip, sp, #8
  58:	e153000c 	cmp	r3, ip
  5c:	e4c12001 	strb	r2, [r1], #1
  60:	1afffff5 	bne	3c <flash_open_read+0x3c>
  64:	e28dd008 	add	sp, sp, #8
  68:	e12fff1e 	bx	lr
  6c:	20204000 	.word	0x20204000

00000070 <flash_read>:
  70:	e3510000 	cmp	r1, #0
  74:	012fff1e 	bxeq	lr
  78:	e3a0c000 	mov	ip, #0
  7c:	e59f302c 	ldr	r3, [pc, #44]	; b0 <flash_read+0x40>
  80:	e52de004 	push	{lr}		; (str lr, [sp, #-4]!)
  84:	e0801001 	add	r1, r0, r1
  88:	e1a0e00c 	mov	lr, ip
  8c:	e5932000 	ldr	r2, [r3]
  90:	e583e004 	str	lr, [r3, #4]
  94:	e3120802 	tst	r2, #131072	; 0x20000
  98:	1a000000 	bne	a0 <flash_read+0x30>
  9c:	eafffffe 	b	9c <flash_read+0x2c>
  a0:	e4c0c001 	strb	ip, [r0], #1
  a4:	e1510000 	cmp	r1, r0
  a8:	1afffff7 	bne	8c <flash_read+0x1c>
  ac:	e49df004 	pop	{pc}		; (ldr pc, [sp], #4)
  b0:	20204000 	.word	0x20204000

000000b4 <flash_close>:
  b4:	e59f200c 	ldr	r2, [pc, #12]	; c8 <flash_close+0x14>
  b8:	e5923000 	ldr	r3, [r2]
  bc:	e3c33080 	bic	r3, r3, #128	; 0x80
  c0:	e5823000 	str	r3, [r2]
  c4:	e12fff1e 	bx	lr
  c8:	20204000 	.word	0x20204000

000000cc <spi0_cs>:
  cc:	e59f3018 	ldr	r3, [pc, #24]	; ec <spi0_cs+0x20>
  d0:	e59f2014 	ldr	r2, [pc, #20]	; ec <spi0_cs+0x20>
  d4:	e3500000 	cmp	r0, #0
  d8:	e5933000 	ldr	r3, [r3]
  dc:	13833080 	orrne	r3, r3, #128	; 0x80
  e0:	03c33080 	biceq	r3, r3, #128	; 0x80
  e4:	e5823000 	str	r3, [r2]
  e8:	e12fff1e 	bx	lr
  ec:	20204000 	.word	0x20204000

000000f0 <spi0_xfer>:
  f0:	e3520000 	cmp	r2, #0
  f4:	012fff1e 	bxeq	lr
  f8:	e59fc02c 	ldr	ip, [pc, #44]	; 12c <spi0_xfer+0x3c>
  fc:	e52de004 	push	{lr}		; (str lr, [sp, #-4]!)
 100:	e080e002 	add	lr, r0, r2
 104:	e4d03001 	ldrb	r3, [r0], #1
 108:	e59c2000 	ldr	r2, [ip]
 10c:	e3120802 	tst	r2, #131072	; 0x20000
 110:	e58c3004 	str	r3, [ip, #4]
 114:	1a000000 	bne	11c <spi0_xfer+0x2c>
 118:	eafffffe 	b	118 <spi0_xfer+0x28>
 11c:	e15e0000 	cmp	lr, r0
 120:	e4c13001 	strb	r3, [r1], #1
 124:	1afffff6 	bne	104 <spi0_xfer+0x14>
 128:	e49df004 	pop	{pc}		; (ldr pc, [sp], #4)
 12c:	20204000 	.word	0x20204000

00000130 <mmap_init>:
 130:	e12fff1e 	bx	lr

00000134 <disp_mem>:
 134:	e3510000 	cmp	r1, #0
 138:	d12fff1e 	bxle	lr
 13c:	e92d4070 	push	{r4, r5, r6, lr}
 140:	e1a04000 	mov	r4, r0
 144:	e0805001 	add	r5, r0, r1
 148:	e4d41001 	ldrb	r1, [r4], #1
 14c:	e59f000c 	ldr	r0, [pc, #12]	; 160 <disp_mem+0x2c>
 150:	ebfffffe 	bl	0 <printf>
 154:	e1540005 	cmp	r4, r5
 158:	1afffffa 	bne	148 <disp_mem+0x14>
 15c:	e8bd8070 	pop	{r4, r5, r6, pc}
 160:	00000000 	.word	0x00000000

00000164 <dump_mem>:
 164:	e92d4070 	push	{r4, r5, r6, lr}
 168:	e2516000 	subs	r6, r1, #0
 16c:	d8bd8070 	pople	{r4, r5, r6, pc}
 170:	e1a05000 	mov	r5, r0
 174:	e3a04000 	mov	r4, #0
 178:	ea000004 	b	190 <dump_mem+0x2c>
 17c:	e4951004 	ldr	r1, [r5], #4
 180:	e59f0028 	ldr	r0, [pc, #40]	; 1b0 <dump_mem+0x4c>
 184:	ebfffffe 	bl	0 <printf>
 188:	e1560004 	cmp	r6, r4
 18c:	0a000006 	beq	1ac <dump_mem+0x48>
 190:	e3140007 	tst	r4, #7
 194:	e2844001 	add	r4, r4, #1
 198:	1afffff7 	bne	17c <dump_mem+0x18>
 19c:	e1a01005 	mov	r1, r5
 1a0:	e59f000c 	ldr	r0, [pc, #12]	; 1b4 <dump_mem+0x50>
 1a4:	ebfffffe 	bl	0 <printf>
 1a8:	eafffff3 	b	17c <dump_mem+0x18>
 1ac:	e8bd8070 	pop	{r4, r5, r6, pc}
 1b0:	00000010 	.word	0x00000010
 1b4:	00000008 	.word	0x00000008

000001b8 <gpio_set>:
 1b8:	e59f3044 	ldr	r3, [pc, #68]	; 204 <gpio_set+0x4c>
 1bc:	e3a04007 	mov	r4, #7
 1c0:	e52de004 	push	{lr}		; (str lr, [sp, #-4]!)
 1c4:	e0cc3093 	smull	r3, ip, r3, r0
 1c8:	e59fe038 	ldr	lr, [pc, #56]	; 208 <gpio_set+0x50>
 1cc:	e1a03fc0 	asr	r3, r0, #31
 1d0:	e063c14c 	rsb	ip, r3, ip, asr #2
 1d4:	e1a0310c 	lsl	r3, ip, #2
 1d8:	e083c00c 	add	ip, r3, ip
 1dc:	e2833202 	add	r3, r3, #536870912	; 0x20000000
 1e0:	e040008c 	sub	r0, r0, ip, lsl #1
 1e4:	e2833602 	add	r3, r3, #2097152	; 0x200000
 1e8:	e0800080 	add	r0, r0, r0, lsl #1
 1ec:	e593c000 	ldr	ip, [r3]
 1f0:	e1ccc014 	bic	ip, ip, r4, lsl r0
 1f4:	e18c1011 	orr	r1, ip, r1, lsl r0
 1f8:	e5831000 	str	r1, [r3]
 1fc:	e58e2094 	str	r2, [lr, #148]	; 0x94
 200:	eafffffe 	b	200 <gpio_set+0x48>
 204:	66666667 	.word	0x66666667
 208:	20200000 	.word	0x20200000

0000020c <flash_init>:
 20c:	e92d4010 	push	{r4, lr}
 210:	e3a02000 	mov	r2, #0
 214:	e3a01004 	mov	r1, #4
 218:	e3a00008 	mov	r0, #8
 21c:	ebfffffe 	bl	1b8 <gpio_set>

00000220 <gpio_mode>:
 220:	e59f3038 	ldr	r3, [pc, #56]	; 260 <gpio_mode+0x40>
 224:	e3a0c007 	mov	ip, #7
 228:	e0c23093 	smull	r3, r2, r3, r0
 22c:	e1a03fc0 	asr	r3, r0, #31
 230:	e0632142 	rsb	r2, r3, r2, asr #2
 234:	e1a03102 	lsl	r3, r2, #2
 238:	e0832002 	add	r2, r3, r2
 23c:	e2833202 	add	r3, r3, #536870912	; 0x20000000
 240:	e0400082 	sub	r0, r0, r2, lsl #1
 244:	e2833602 	add	r3, r3, #2097152	; 0x200000
 248:	e0800080 	add	r0, r0, r0, lsl #1
 24c:	e5932000 	ldr	r2, [r3]
 250:	e1c2201c 	bic	r2, r2, ip, lsl r0
 254:	e1821011 	orr	r1, r2, r1, lsl r0
 258:	e5831000 	str	r1, [r3]
 25c:	e12fff1e 	bx	lr
 260:	66666667 	.word	0x66666667

00000264 <gpio_pull>:
 264:	e59f3004 	ldr	r3, [pc, #4]	; 270 <gpio_pull+0xc>
 268:	e5831094 	str	r1, [r3, #148]	; 0x94
 26c:	eafffffe 	b	26c <gpio_pull+0x8>
 270:	20200000 	.word	0x20200000

00000274 <gpio_out>:
 274:	e1a03fc0 	asr	r3, r0, #31
 278:	e3500000 	cmp	r0, #0
 27c:	e1a03da3 	lsr	r3, r3, #27
 280:	e0802003 	add	r2, r0, r3
 284:	e52de004 	push	{lr}		; (str lr, [sp, #-4]!)
 288:	e202201f 	and	r2, r2, #31
 28c:	e280e01f 	add	lr, r0, #31
 290:	b1a0000e 	movlt	r0, lr
 294:	e0633002 	rsb	r3, r3, r2
 298:	e3a0c001 	mov	ip, #1
 29c:	e59f201c 	ldr	r2, [pc, #28]	; 2c0 <gpio_out+0x4c>
 2a0:	e59fe01c 	ldr	lr, [pc, #28]	; 2c4 <gpio_out+0x50>
 2a4:	e3510000 	cmp	r1, #0
 2a8:	e1a0331c 	lsl	r3, ip, r3
 2ac:	e1a002c0 	asr	r0, r0, #5
 2b0:	11a01002 	movne	r1, r2
 2b4:	01a0100e 	moveq	r1, lr
 2b8:	e7813100 	str	r3, [r1, r0, lsl #2]
 2bc:	e49df004 	pop	{pc}		; (ldr pc, [sp], #4)
 2c0:	2020001c 	.word	0x2020001c
 2c4:	20200028 	.word	0x20200028

000002c8 <gpio_in>:
 2c8:	e3500000 	cmp	r0, #0
 2cc:	e280201f 	add	r2, r0, #31
 2d0:	e1a01fc0 	asr	r1, r0, #31
 2d4:	a1a02000 	movge	r2, r0
 2d8:	e59fc020 	ldr	ip, [pc, #32]	; 300 <gpio_in+0x38>
 2dc:	e1a01da1 	lsr	r1, r1, #27
 2e0:	e1a022c2 	asr	r2, r2, #5
 2e4:	e0800001 	add	r0, r0, r1
 2e8:	e200301f 	and	r3, r0, #31
 2ec:	e79c2102 	ldr	r2, [ip, r2, lsl #2]
 2f0:	e0610003 	rsb	r0, r1, r3
 2f4:	e1a00032 	lsr	r0, r2, r0
 2f8:	e2000001 	and	r0, r0, #1
 2fc:	e12fff1e 	bx	lr
 300:	20200034 	.word	0x20200034

00000304 <gpio_write>:
 304:	e92d4030 	push	{r4, r5, lr}
 308:	e3500000 	cmp	r0, #0
 30c:	e1a04fc0 	asr	r4, r0, #31
 310:	e280301f 	add	r3, r0, #31
 314:	a1a03000 	movge	r3, r0
 318:	e1a04da4 	lsr	r4, r4, #27
 31c:	e3e05000 	mvn	r5, #0
 320:	e0800004 	add	r0, r0, r4
 324:	e1e0e002 	mvn	lr, r2
 328:	e1a032c3 	asr	r3, r3, #5
 32c:	e200c01f 	and	ip, r0, #31
 330:	e1ce1115 	bic	r1, lr, r5, lsl r1
 334:	e064000c 	rsb	r0, r4, ip
 338:	e1a03103 	lsl	r3, r3, #2
 33c:	e2833202 	add	r3, r3, #536870912	; 0x20000000
 340:	e2833602 	add	r3, r3, #2097152	; 0x200000
 344:	e1a02012 	lsl	r2, r2, r0
 348:	e1a00011 	lsl	r0, r1, r0
 34c:	e583201c 	str	r2, [r3, #28]
 350:	e5830028 	str	r0, [r3, #40]	; 0x28
 354:	e8bd8030 	pop	{r4, r5, pc}

00000358 <gpio_read>:
 358:	e3500000 	cmp	r0, #0
 35c:	e92d4030 	push	{r4, r5, lr}
 360:	e1a03fc0 	asr	r3, r0, #31
 364:	e280e01f 	add	lr, r0, #31
 368:	a1a0e000 	movge	lr, r0
 36c:	e59f5028 	ldr	r5, [pc, #40]	; 39c <gpio_read+0x44>
 370:	e1a04da3 	lsr	r4, r3, #27
 374:	e1a0e2ce 	asr	lr, lr, #5
 378:	e0800004 	add	r0, r0, r4
 37c:	e3e0c000 	mvn	ip, #0
 380:	e200201f 	and	r2, r0, #31
 384:	e795010e 	ldr	r0, [r5, lr, lsl #2]
 388:	e0643002 	rsb	r3, r4, r2
 38c:	e1e0111c 	mvn	r1, ip, lsl r1
 390:	e0010330 	and	r0, r1, r0, lsr r3
 394:	e6ef0070 	uxtb	r0, r0
 398:	e8bd8030 	pop	{r4, r5, pc}
 39c:	20200034 	.word	0x20200034

000003a0 <ustime>:
 3a0:	e59f3004 	ldr	r3, [pc, #4]	; 3ac <ustime+0xc>
 3a4:	e5930004 	ldr	r0, [r3, #4]
 3a8:	e12fff1e 	bx	lr
 3ac:	20003000 	.word	0x20003000

000003b0 <usdelay>:
 3b0:	e3500000 	cmp	r0, #0
 3b4:	d12fff1e 	bxle	lr
 3b8:	eafffffe 	b	3b8 <usdelay+0x8>

000003bc <ustimeout>:
 3bc:	e59f302c 	ldr	r3, [pc, #44]	; 3f0 <ustimeout+0x34>
 3c0:	e3510000 	cmp	r1, #0
 3c4:	e5933004 	ldr	r3, [r3, #4]
 3c8:	0a000003 	beq	3dc <ustimeout+0x20>
 3cc:	e5902000 	ldr	r2, [r0]
 3d0:	e0622003 	rsb	r2, r2, r3
 3d4:	e1510002 	cmp	r1, r2
 3d8:	ca000002 	bgt	3e8 <ustimeout+0x2c>
 3dc:	e5803000 	str	r3, [r0]
 3e0:	e3a00001 	mov	r0, #1
 3e4:	e12fff1e 	bx	lr
 3e8:	e3a00000 	mov	r0, #0
 3ec:	e12fff1e 	bx	lr
 3f0:	20003000 	.word	0x20003000

zw_ioctl.o:     file format elf32-littlearm


Disassembly of section .text:

00000000 <ioctl_get_event>:
   0:	e92d41f0 	push	{r4, r5, r6, r7, r8, lr}
   4:	e3a04000 	mov	r4, #0
   8:	e5c04000 	strb	r4, [r0]
   c:	e5c04001 	strb	r4, [r0, #1]
  10:	e1a05000 	mov	r5, r0
  14:	e1a08001 	mov	r8, r1
  18:	e1a07002 	mov	r7, r2
  1c:	e3a0300c 	mov	r3, #12
  20:	e1a02000 	mov	r2, r0
  24:	e3a01902 	mov	r1, #32768	; 0x8000
  28:	e3a00002 	mov	r0, #2
  2c:	ebfffffe 	bl	0 <sdio_cmd53_read>
  30:	e3500000 	cmp	r0, #0
  34:	01a06000 	moveq	r6, r0
  38:	0a00000d 	beq	74 <ioctl_get_event+0x74>
  3c:	e5d51001 	ldrb	r1, [r5, #1]
  40:	e5d52000 	ldrb	r2, [r5]
  44:	e1823401 	orr	r3, r2, r1, lsl #8
  48:	e353000c 	cmp	r3, #12
  4c:	9a000007 	bls	70 <ioctl_get_event+0x70>
  50:	e5d56003 	ldrb	r6, [r5, #3]
  54:	e5d50002 	ldrb	r0, [r5, #2]
  58:	e1906406 	orrs	r6, r0, r6, lsl #8
  5c:	0a000004 	beq	74 <ioctl_get_event+0x74>
  60:	e1e06006 	mvn	r6, r6
  64:	e6ff0076 	uxth	r0, r6
  68:	e1530000 	cmp	r3, r0
  6c:	0a000004 	beq	84 <ioctl_get_event+0x84>
  70:	e1a06004 	mov	r6, r4
  74:	e1560007 	cmp	r6, r7
  78:	b1a00006 	movlt	r0, r6
  7c:	a1a00007 	movge	r0, r7
  80:	e8bd81f0 	pop	{r4, r5, r6, r7, r8, pc}
  84:	e1570004 	cmp	r7, r4
  88:	e243600c 	sub	r6, r3, #12
  8c:	ca000003 	bgt	a0 <ioctl_get_event+0xa0>
  90:	ea000014 	b	e8 <ioctl_get_event+0xe8>
  94:	e5d52001 	ldrb	r2, [r5, #1]
  98:	e5d53000 	ldrb	r3, [r5]
  9c:	e1833402 	orr	r3, r3, r2, lsl #8
  a0:	e0643003 	rsb	r3, r4, r3
  a4:	e0642007 	rsb	r2, r4, r7
  a8:	e1530002 	cmp	r3, r2
  ac:	a1a03002 	movge	r3, r2
  b0:	e3530c01 	cmp	r3, #256	; 0x100
  b4:	a3a03c01 	movge	r3, #256	; 0x100
  b8:	e0882004 	add	r2, r8, r4
  bc:	e3a01902 	mov	r1, #32768	; 0x8000
  c0:	e0844003 	add	r4, r4, r3
  c4:	e3a00002 	mov	r0, #2
  c8:	ebfffffe 	bl	0 <sdio_cmd53_read>
  cc:	e1560004 	cmp	r6, r4
  d0:	c1570004 	cmpgt	r7, r4
  d4:	caffffee 	bgt	94 <ioctl_get_event+0x94>
  d8:	e1560004 	cmp	r6, r4
  dc:	daffffe4 	ble	74 <ioctl_get_event+0x74>
  e0:	e5d52000 	ldrb	r2, [r5]
  e4:	e5d51001 	ldrb	r1, [r5, #1]
  e8:	e1823401 	orr	r3, r2, r1, lsl #8
  ec:	e0643003 	rsb	r3, r4, r3
  f0:	e3530c01 	cmp	r3, #256	; 0x100
  f4:	a3a03c01 	movge	r3, #256	; 0x100
  f8:	e0844003 	add	r4, r4, r3
  fc:	e3a02000 	mov	r2, #0
 100:	e3a01902 	mov	r1, #32768	; 0x8000
 104:	e3a00002 	mov	r0, #2
 108:	ebfffffe 	bl	0 <sdio_cmd53_read>
 10c:	e1560004 	cmp	r6, r4
 110:	cafffff2 	bgt	e0 <ioctl_get_event+0xe0>
 114:	eaffffd6 	b	74 <ioctl_get_event+0x74>

00000118 <ioctl_evt_str>:
 118:	e59f30b8 	ldr	r3, [pc, #184]	; 1d8 <ioctl_evt_str+0xc0>
 11c:	e5931000 	ldr	r1, [r3]
 120:	e3510000 	cmp	r1, #0
 124:	0a000029 	beq	1d0 <ioctl_evt_str+0xb8>
 128:	e92d4010 	push	{r4, lr}
 12c:	e5d1e001 	ldrb	lr, [r1, #1]
 130:	e5d12000 	ldrb	r2, [r1]
 134:	e5d13002 	ldrb	r3, [r1, #2]
 138:	e5d1c003 	ldrb	ip, [r1, #3]
 13c:	e182240e 	orr	r2, r2, lr, lsl #8
 140:	e1823803 	orr	r3, r2, r3, lsl #16
 144:	e1833c0c 	orr	r3, r3, ip, lsl #24
 148:	e0502003 	subs	r2, r0, r3
 14c:	ea000009 	b	178 <ioctl_evt_str+0x60>
 150:	e2911008 	adds	r1, r1, #8
 154:	0a00001b 	beq	1c8 <ioctl_evt_str+0xb0>
 158:	e5d1e001 	ldrb	lr, [r1, #1]
 15c:	e5d12000 	ldrb	r2, [r1]
 160:	e5d13002 	ldrb	r3, [r1, #2]
 164:	e5d1c003 	ldrb	ip, [r1, #3]
 168:	e182240e 	orr	r2, r2, lr, lsl #8
 16c:	e1823803 	orr	r3, r2, r3, lsl #16
 170:	e1833c0c 	orr	r3, r3, ip, lsl #24
 174:	e0532000 	subs	r2, r3, r0
 178:	13a02001 	movne	r2, #1
 17c:	e3530000 	cmp	r3, #0
 180:	b3a02000 	movlt	r2, #0
 184:	e3520000 	cmp	r2, #0
 188:	1afffff0 	bne	150 <ioctl_evt_str+0x38>
 18c:	e3530000 	cmp	r3, #0
 190:	ba00000c 	blt	1c8 <ioctl_evt_str+0xb0>
 194:	e5d13005 	ldrb	r3, [r1, #5]
 198:	e5d14006 	ldrb	r4, [r1, #6]
 19c:	e5d12004 	ldrb	r2, [r1, #4]
 1a0:	e5d10007 	ldrb	r0, [r1, #7]
 1a4:	e1823403 	orr	r3, r2, r3, lsl #8
 1a8:	e1833804 	orr	r3, r3, r4, lsl #16
 1ac:	e1834c00 	orr	r4, r3, r0, lsl #24
 1b0:	e1a00004 	mov	r0, r4
 1b4:	ebfffffe 	bl	0 <strlen>
 1b8:	e3500006 	cmp	r0, #6
 1bc:	9a000001 	bls	1c8 <ioctl_evt_str+0xb0>
 1c0:	e2840006 	add	r0, r4, #6
 1c4:	e8bd8010 	pop	{r4, pc}
 1c8:	e59f000c 	ldr	r0, [pc, #12]	; 1dc <ioctl_evt_str+0xc4>
 1cc:	e8bd8010 	pop	{r4, pc}
 1d0:	e59f0004 	ldr	r0, [pc, #4]	; 1dc <ioctl_evt_str+0xc4>
 1d4:	e12fff1e 	bx	lr
	...

000001e0 <ioctl_evt_status_str>:
 1e0:	e350000f 	cmp	r0, #15
 1e4:	959f3008 	ldrls	r3, [pc, #8]	; 1f4 <ioctl_evt_status_str+0x14>
 1e8:	97930100 	ldrls	r0, [r3, r0, lsl #2]
 1ec:	859f0004 	ldrhi	r0, [pc, #4]	; 1f8 <ioctl_evt_status_str+0x18>
 1f0:	e12fff1e 	bx	lr
	...

000001fc <ioctl_wait>:
 1fc:	e92d4010 	push	{r4, lr}
 200:	e24dd008 	sub	sp, sp, #8
 204:	e1a04000 	mov	r4, r0
 208:	e3a01000 	mov	r1, #0
 20c:	e28d0004 	add	r0, sp, #4
 210:	ebfffffe 	bl	0 <ustimeout>
 214:	e1a01004 	mov	r1, r4
 218:	e28d0004 	add	r0, sp, #4
 21c:	ebfffffe 	bl	0 <ustimeout>
 220:	e3500000 	cmp	r0, #0
 224:	e3a00025 	mov	r0, #37	; 0x25
 228:	1a000005 	bne	244 <ioctl_wait+0x48>
 22c:	ebfffffe 	bl	0 <gpio_in>
 230:	e3500000 	cmp	r0, #0
 234:	1afffff6 	bne	214 <ioctl_wait+0x18>
 238:	e3a00001 	mov	r0, #1
 23c:	e28dd008 	add	sp, sp, #8
 240:	e8bd8010 	pop	{r4, pc}
 244:	e3a00000 	mov	r0, #0
 248:	e28dd008 	add	sp, sp, #8
 24c:	e8bd8010 	pop	{r4, pc}

00000250 <ioctl_cmd>:
 250:	e92d4ff0 	push	{r4, r5, r6, r7, r8, r9, sl, fp, lr}
 254:	e24dd024 	sub	sp, sp, #36	; 0x24
 258:	e59fe324 	ldr	lr, [pc, #804]	; 584 <ioctl_cmd+0x334>
 25c:	e58d0008 	str	r0, [sp, #8]
 260:	e59fc320 	ldr	ip, [pc, #800]	; 588 <ioctl_cmd+0x338>
 264:	e59e0000 	ldr	r0, [lr]
 268:	e28c5008 	add	r5, ip, #8
 26c:	e3500000 	cmp	r0, #0
 270:	01a0500c 	moveq	r5, ip
 274:	e3510000 	cmp	r1, #0
 278:	e58d0004 	str	r0, [sp, #4]
 27c:	e58d1010 	str	r1, [sp, #16]
 280:	e1a04002 	mov	r4, r2
 284:	e1a0b003 	mov	fp, r3
 288:	e59d904c 	ldr	r9, [sp, #76]	; 0x4c
 28c:	0a0000b4 	beq	564 <ioctl_cmd+0x314>
 290:	e1a00001 	mov	r0, r1
 294:	ebfffffe 	bl	0 <strlen>
 298:	e2803001 	add	r3, r0, #1
 29c:	e58d3000 	str	r3, [sp]
 2a0:	e59d3000 	ldr	r3, [sp]
 2a4:	e35b0000 	cmp	fp, #0
 2a8:	1083a009 	addne	sl, r3, r9
 2ac:	1a000002 	bne	2bc <ioctl_cmd+0x6c>
 2b0:	e1530009 	cmp	r3, r9
 2b4:	a1a0a003 	movge	sl, r3
 2b8:	b1a0a009 	movlt	sl, r9
 2bc:	e59f82c8 	ldr	r8, [pc, #712]	; 58c <ioctl_cmd+0x33c>
 2c0:	e2853018 	add	r3, r5, #24
 2c4:	e0687003 	rsb	r7, r8, r3
 2c8:	e08a6007 	add	r6, sl, r7
 2cc:	e2962003 	adds	r2, r6, #3
 2d0:	e58d3014 	str	r3, [sp, #20]
 2d4:	e3a03000 	mov	r3, #0
 2d8:	42866006 	addmi	r6, r6, #6
 2dc:	51a06002 	movpl	r6, r2
 2e0:	e1a01003 	mov	r1, r3
 2e4:	e3a02f49 	mov	r2, #292	; 0x124
 2e8:	e1a00008 	mov	r0, r8
 2ec:	e58d301c 	str	r3, [sp, #28]
 2f0:	e58d300c 	str	r3, [sp, #12]
 2f4:	ebfffffe 	bl	0 <memset>
 2f8:	e59d300c 	ldr	r3, [sp, #12]
 2fc:	e6ffa07a 	uxth	sl, sl
 300:	e1a01003 	mov	r1, r3
 304:	e3a02f49 	mov	r2, #292	; 0x124
 308:	e59f0280 	ldr	r0, [pc, #640]	; 590 <ioctl_cmd+0x340>
 30c:	e08a7007 	add	r7, sl, r7
 310:	ebfffffe 	bl	0 <memset>
 314:	e59d3004 	ldr	r3, [sp, #4]
 318:	e6ff7077 	uxth	r7, r7
 31c:	e3530000 	cmp	r3, #0
 320:	e1e03007 	mvn	r3, r7
 324:	e1a02427 	lsr	r2, r7, #8
 328:	e6ff3073 	uxth	r3, r3
 32c:	e3c66003 	bic	r6, r6, #3
 330:	e1a01423 	lsr	r1, r3, #8
 334:	e5c87000 	strb	r7, [r8]
 338:	e5c82001 	strb	r2, [r8, #1]
 33c:	e5c83002 	strb	r3, [r8, #2]
 340:	e5c81003 	strb	r1, [r8, #3]
 344:	0a000037 	beq	428 <ioctl_cmd+0x1d8>
 348:	e59f2244 	ldr	r2, [pc, #580]	; 594 <ioctl_cmd+0x344>
 34c:	e2477004 	sub	r7, r7, #4
 350:	e3a03014 	mov	r3, #20
 354:	e5d21040 	ldrb	r1, [r2, #64]	; 0x40
 358:	e6ff7077 	uxth	r7, r7
 35c:	e5c87004 	strb	r7, [r8, #4]
 360:	e2810001 	add	r0, r1, #1
 364:	e1a07427 	lsr	r7, r7, #8
 368:	e5c20040 	strb	r0, [r2, #64]	; 0x40
 36c:	e3a02001 	mov	r2, #1
 370:	e5c87005 	strb	r7, [r8, #5]
 374:	e5c82007 	strb	r2, [r8, #7]
 378:	e5c51000 	strb	r1, [r5]
 37c:	e59f7214 	ldr	r7, [pc, #532]	; 598 <ioctl_cmd+0x348>
 380:	e59d0008 	ldr	r0, [sp, #8]
 384:	e1a0242a 	lsr	r2, sl, #8
 388:	e1d710b0 	ldrh	r1, [r7]
 38c:	e5c53003 	strb	r3, [r5, #3]
 390:	e5c5200d 	strb	r2, [r5, #13]
 394:	e2813001 	add	r3, r1, #1
 398:	e1a02000 	mov	r2, r0
 39c:	e6ff3073 	uxth	r3, r3
 3a0:	e1a01420 	lsr	r1, r0, #8
 3a4:	e5c50008 	strb	r0, [r5, #8]
 3a8:	e1a02c22 	lsr	r2, r2, #24
 3ac:	e1a00820 	lsr	r0, r0, #16
 3b0:	e35b0000 	cmp	fp, #0
 3b4:	e1c730b0 	strh	r3, [r7]
 3b8:	e5c5a00c 	strb	sl, [r5, #12]
 3bc:	e1a03803 	lsl	r3, r3, #16
 3c0:	e5c51009 	strb	r1, [r5, #9]
 3c4:	e5c5000a 	strb	r0, [r5, #10]
 3c8:	e5c5200b 	strb	r2, [r5, #11]
 3cc:	0a00001c 	beq	444 <ioctl_cmd+0x1f4>
 3d0:	e3833002 	orr	r3, r3, #2
 3d4:	e59d2000 	ldr	r2, [sp]
 3d8:	e1a01823 	lsr	r1, r3, #16
 3dc:	e3520000 	cmp	r2, #0
 3e0:	e5c53010 	strb	r3, [r5, #16]
 3e4:	e1a02c23 	lsr	r2, r3, #24
 3e8:	e3a03000 	mov	r3, #0
 3ec:	e5c51012 	strb	r1, [r5, #18]
 3f0:	e5c52013 	strb	r2, [r5, #19]
 3f4:	e5c53011 	strb	r3, [r5, #17]
 3f8:	0a000003 	beq	40c <ioctl_cmd+0x1bc>
 3fc:	e59d1010 	ldr	r1, [sp, #16]
 400:	e59d0014 	ldr	r0, [sp, #20]
 404:	e59d2000 	ldr	r2, [sp]
 408:	ebfffffe 	bl	0 <memcpy>
 40c:	e59d3000 	ldr	r3, [sp]
 410:	e1a02009 	mov	r2, r9
 414:	e2830018 	add	r0, r3, #24
 418:	e0850000 	add	r0, r5, r0
 41c:	e59d1048 	ldr	r1, [sp, #72]	; 0x48
 420:	ebfffffe 	bl	0 <memcpy>
 424:	ea000011 	b	470 <ioctl_cmd+0x220>
 428:	e59f1164 	ldr	r1, [pc, #356]	; 594 <ioctl_cmd+0x344>
 42c:	e3a0300c 	mov	r3, #12
 430:	e5d12040 	ldrb	r2, [r1, #64]	; 0x40
 434:	e5c52000 	strb	r2, [r5]
 438:	e2822001 	add	r2, r2, #1
 43c:	e5c12040 	strb	r2, [r1, #64]	; 0x40
 440:	eaffffcd 	b	37c <ioctl_cmd+0x12c>
 444:	e59d2000 	ldr	r2, [sp]
 448:	e3a01000 	mov	r1, #0
 44c:	e3520000 	cmp	r2, #0
 450:	e6ef2073 	uxtb	r2, r3
 454:	e5c52010 	strb	r2, [r5, #16]
 458:	e1a02823 	lsr	r2, r3, #16
 45c:	e1a03c23 	lsr	r3, r3, #24
 460:	e5c51011 	strb	r1, [r5, #17]
 464:	e5c52012 	strb	r2, [r5, #18]
 468:	e5c53013 	strb	r3, [r5, #19]
 46c:	1a00003f 	bne	570 <ioctl_cmd+0x320>
 470:	e1a03006 	mov	r3, r6
 474:	e59f2110 	ldr	r2, [pc, #272]	; 58c <ioctl_cmd+0x33c>
 478:	e3a01902 	mov	r1, #32768	; 0x8000
 47c:	e3a00002 	mov	r0, #2
 480:	ebfffffe 	bl	0 <sdio_cmd53_write>
 484:	e3a00e7d 	mov	r0, #2000	; 0x7d0
 488:	ebfffffe 	bl	1fc <ioctl_wait>
 48c:	e59f80fc 	ldr	r8, [pc, #252]	; 590 <ioctl_cmd+0x340>
 490:	e3a05000 	mov	r5, #0
 494:	e3540000 	cmp	r4, #0
 498:	a3550000 	cmpge	r5, #0
 49c:	e28d101c 	add	r1, sp, #28
 4a0:	e59f00f4 	ldr	r0, [pc, #244]	; 59c <ioctl_cmd+0x34c>
 4a4:	1a00002b 	bne	558 <ioctl_cmd+0x308>
 4a8:	ebfffffe 	bl	0 <sdio_bak_read32>
 4ac:	e59d501c 	ldr	r5, [sp, #28]
 4b0:	e59f00e4 	ldr	r0, [pc, #228]	; 59c <ioctl_cmd+0x34c>
 4b4:	e1a01005 	mov	r1, r5
 4b8:	e21550ff 	ands	r5, r5, #255	; 0xff
 4bc:	e2444002 	sub	r4, r4, #2
 4c0:	0a000020 	beq	548 <ioctl_cmd+0x2f8>
 4c4:	ebfffffe 	bl	0 <sdio_bak_write32>
 4c8:	e1a03006 	mov	r3, r6
 4cc:	e59f20bc 	ldr	r2, [pc, #188]	; 590 <ioctl_cmd+0x340>
 4d0:	e3a01902 	mov	r1, #32768	; 0x8000
 4d4:	e3a00002 	mov	r0, #2
 4d8:	ebfffffe 	bl	0 <sdio_cmd53_read>
 4dc:	e5d81015 	ldrb	r1, [r8, #21]
 4e0:	e5d82014 	ldrb	r2, [r8, #20]
 4e4:	e5d83016 	ldrb	r3, [r8, #22]
 4e8:	e1822401 	orr	r2, r2, r1, lsl #8
 4ec:	e1d710b0 	ldrh	r1, [r7]
 4f0:	e1823803 	orr	r3, r2, r3, lsl #16
 4f4:	e1a05000 	mov	r5, r0
 4f8:	e5d80017 	ldrb	r0, [r8, #23]
 4fc:	e1833c00 	orr	r3, r3, r0, lsl #24
 500:	e1510823 	cmp	r1, r3, lsr #16
 504:	13a05000 	movne	r5, #0
 508:	1affffe1 	bne	494 <ioctl_cmd+0x244>
 50c:	e3550000 	cmp	r5, #0
 510:	0affffdf 	beq	494 <ioctl_cmd+0x244>
 514:	e3130001 	tst	r3, #1
 518:	1a00000d 	bne	554 <ioctl_cmd+0x304>
 51c:	e35b0000 	cmp	fp, #0
 520:	1affffdb 	bne	494 <ioctl_cmd+0x244>
 524:	e59d3048 	ldr	r3, [sp, #72]	; 0x48
 528:	e3530000 	cmp	r3, #0
 52c:	13590000 	cmpne	r9, #0
 530:	0affffd7 	beq	494 <ioctl_cmd+0x244>
 534:	e1a02009 	mov	r2, r9
 538:	e59f1060 	ldr	r1, [pc, #96]	; 5a0 <ioctl_cmd+0x350>
 53c:	e1a00003 	mov	r0, r3
 540:	ebfffffe 	bl	0 <memcpy>
 544:	eaffffd2 	b	494 <ioctl_cmd+0x244>
 548:	e3a00e7d 	mov	r0, #2000	; 0x7d0
 54c:	ebfffffe 	bl	0 <usdelay>
 550:	eaffffcf 	b	494 <ioctl_cmd+0x244>
 554:	e3a05000 	mov	r5, #0
 558:	e1a00005 	mov	r0, r5
 55c:	e28dd024 	add	sp, sp, #36	; 0x24
 560:	e8bd8ff0 	pop	{r4, r5, r6, r7, r8, r9, sl, fp, pc}
 564:	e59d3010 	ldr	r3, [sp, #16]
 568:	e58d3000 	str	r3, [sp]
 56c:	eaffff4b 	b	2a0 <ioctl_cmd+0x50>
 570:	e59d2000 	ldr	r2, [sp]
 574:	e59d1010 	ldr	r1, [sp, #16]
 578:	e59d0014 	ldr	r0, [sp, #20]
 57c:	ebfffffe 	bl	0 <memcpy>
 580:	eaffffba 	b	470 <ioctl_cmd+0x220>
 584:	00000000 	.word	0x00000000
 588:	00000004 	.word	0x00000004
	...
 59c:	18002020 	.word	0x18002020
 5a0:	0000001c 	.word	0x0000001c

000005a4 <ioctl_get_data>:
 5a4:	e52de004 	push	{lr}		; (str lr, [sp, #-4]!)
 5a8:	e24dd00c 	sub	sp, sp, #12
 5ac:	e88d000c 	stm	sp, {r2, r3}
 5b0:	e1a02001 	mov	r2, r1
 5b4:	e3a03000 	mov	r3, #0
 5b8:	e1a01000 	mov	r1, r0
 5bc:	e59f0008 	ldr	r0, [pc, #8]	; 5cc <ioctl_get_data+0x28>
 5c0:	ebfffffe 	bl	250 <ioctl_cmd>
 5c4:	e28dd00c 	add	sp, sp, #12
 5c8:	e49df004 	pop	{pc}		; (ldr pc, [sp], #4)
 5cc:	00000106 	.word	0x00000106

000005d0 <ioctl_set_data>:
 5d0:	e52de004 	push	{lr}		; (str lr, [sp, #-4]!)
 5d4:	e24dd00c 	sub	sp, sp, #12
 5d8:	e88d000c 	stm	sp, {r2, r3}
 5dc:	e1a02001 	mov	r2, r1
 5e0:	e3a03001 	mov	r3, #1
 5e4:	e1a01000 	mov	r1, r0
 5e8:	e59f0008 	ldr	r0, [pc, #8]	; 5f8 <ioctl_set_data+0x28>
 5ec:	ebfffffe 	bl	250 <ioctl_cmd>
 5f0:	e28dd00c 	add	sp, sp, #12
 5f4:	e49df004 	pop	{pc}		; (ldr pc, [sp], #4)
 5f8:	00000107 	.word	0x00000107

000005fc <ioctl_enable_evts>:
 5fc:	e92d4010 	push	{r4, lr}
 600:	e3a03000 	mov	r3, #0
 604:	e59fe0a4 	ldr	lr, [pc, #164]	; 6b0 <ioctl_enable_evts+0xb4>
 608:	e59fc0a4 	ldr	ip, [pc, #164]	; 6b4 <ioctl_enable_evts+0xb8>
 60c:	e24dd008 	sub	sp, sp, #8
 610:	e58e3000 	str	r3, [lr]
 614:	e58e3004 	str	r3, [lr, #4]
 618:	e58e3008 	str	r3, [lr, #8]
 61c:	e58e300c 	str	r3, [lr, #12]
 620:	e58e3010 	str	r3, [lr, #16]
 624:	e58e3014 	str	r3, [lr, #20]
 628:	e1ce31b8 	strh	r3, [lr, #24]
 62c:	e5d04001 	ldrb	r4, [r0, #1]
 630:	e5d02000 	ldrb	r2, [r0]
 634:	e5d03002 	ldrb	r3, [r0, #2]
 638:	e5d01003 	ldrb	r1, [r0, #3]
 63c:	e1822404 	orr	r2, r2, r4, lsl #8
 640:	e58c0000 	str	r0, [ip]
 644:	e1823803 	orr	r3, r2, r3, lsl #16
 648:	e1933c01 	orrs	r3, r3, r1, lsl #24
 64c:	53a04001 	movpl	r4, #1
 650:	4a00000c 	bmi	688 <ioctl_enable_evts+0x8c>
 654:	e35300cf 	cmp	r3, #207	; 0xcf
 658:	e2031007 	and	r1, r3, #7
 65c:	d7de21c3 	ldrble	r2, [lr, r3, asr #3]
 660:	d1822114 	orrle	r2, r2, r4, lsl r1
 664:	d7ce21c3 	strble	r2, [lr, r3, asr #3]
 668:	e5f02008 	ldrb	r2, [r0, #8]!
 66c:	e5d0c001 	ldrb	ip, [r0, #1]
 670:	e5d03002 	ldrb	r3, [r0, #2]
 674:	e5d01003 	ldrb	r1, [r0, #3]
 678:	e182240c 	orr	r2, r2, ip, lsl #8
 67c:	e1823803 	orr	r3, r2, r3, lsl #16
 680:	e1933c01 	orrs	r3, r3, r1, lsl #24
 684:	5afffff2 	bpl	654 <ioctl_enable_evts+0x58>
 688:	e3a0301a 	mov	r3, #26
 68c:	e58d3004 	str	r3, [sp, #4]
 690:	e58de000 	str	lr, [sp]
 694:	e3a03001 	mov	r3, #1
 698:	e3a02000 	mov	r2, #0
 69c:	e59f1014 	ldr	r1, [pc, #20]	; 6b8 <ioctl_enable_evts+0xbc>
 6a0:	e59f0014 	ldr	r0, [pc, #20]	; 6bc <ioctl_enable_evts+0xc0>
 6a4:	ebfffffe 	bl	250 <ioctl_cmd>
 6a8:	e28dd008 	add	sp, sp, #8
 6ac:	e8bd8010 	pop	{r4, pc}
	...
 6b8:	00000004 	.word	0x00000004
 6bc:	00000107 	.word	0x00000107

000006c0 <ioctl_set_uint32>:
 6c0:	e52de004 	push	{lr}		; (str lr, [sp, #-4]!)
 6c4:	e24dd014 	sub	sp, sp, #20
 6c8:	e28d3010 	add	r3, sp, #16
 6cc:	e3a0c004 	mov	ip, #4
 6d0:	e5232004 	str	r2, [r3, #-4]!
 6d4:	e1a02001 	mov	r2, r1
 6d8:	e88d1008 	stm	sp, {r3, ip}
 6dc:	e1a01000 	mov	r1, r0
 6e0:	e3a03001 	mov	r3, #1
 6e4:	e59f0008 	ldr	r0, [pc, #8]	; 6f4 <ioctl_set_uint32+0x34>
 6e8:	ebfffffe 	bl	250 <ioctl_cmd>
 6ec:	e28dd014 	add	sp, sp, #20
 6f0:	e49df004 	pop	{pc}		; (ldr pc, [sp], #4)
 6f4:	00000107 	.word	0x00000107

000006f8 <ioctl_set_intx2>:
 6f8:	e52de004 	push	{lr}		; (str lr, [sp, #-4]!)
 6fc:	e3a0e008 	mov	lr, #8
 700:	e24dd014 	sub	sp, sp, #20
 704:	e08dc00e 	add	ip, sp, lr
 708:	e58d2008 	str	r2, [sp, #8]
 70c:	e58d300c 	str	r3, [sp, #12]
 710:	e1a02001 	mov	r2, r1
 714:	e58de004 	str	lr, [sp, #4]
 718:	e1a01000 	mov	r1, r0
 71c:	e58dc000 	str	ip, [sp]
 720:	e3a03001 	mov	r3, #1
 724:	e59f0008 	ldr	r0, [pc, #8]	; 734 <ioctl_set_intx2+0x3c>
 728:	ebfffffe 	bl	250 <ioctl_cmd>
 72c:	e28dd014 	add	sp, sp, #20
 730:	e49df004 	pop	{pc}		; (ldr pc, [sp], #4)
 734:	00000107 	.word	0x00000107

00000738 <ioctl_wr_int32>:
 738:	e52de004 	push	{lr}		; (str lr, [sp, #-4]!)
 73c:	e24dd014 	sub	sp, sp, #20
 740:	e28d3010 	add	r3, sp, #16
 744:	e3a0c004 	mov	ip, #4
 748:	e5232004 	str	r2, [r3, #-4]!
 74c:	e1a02001 	mov	r2, r1
 750:	e88d1008 	stm	sp, {r3, ip}
 754:	e3a01000 	mov	r1, #0
 758:	e3a03001 	mov	r3, #1
 75c:	ebfffffe 	bl	250 <ioctl_cmd>
 760:	e28dd014 	add	sp, sp, #20
 764:	e49df004 	pop	{pc}		; (ldr pc, [sp], #4)

00000768 <ioctl_wr_data>:
 768:	e52de004 	push	{lr}		; (str lr, [sp, #-4]!)
 76c:	e24dd00c 	sub	sp, sp, #12
 770:	e88d000c 	stm	sp, {r2, r3}
 774:	e1a02001 	mov	r2, r1
 778:	e3a03001 	mov	r3, #1
 77c:	e3a01000 	mov	r1, #0
 780:	ebfffffe 	bl	250 <ioctl_cmd>
 784:	e28dd00c 	add	sp, sp, #12
 788:	e49df004 	pop	{pc}		; (ldr pc, [sp], #4)

0000078c <ioctl_rd_data>:
 78c:	e52de004 	push	{lr}		; (str lr, [sp, #-4]!)
 790:	e24dd00c 	sub	sp, sp, #12
 794:	e58d3004 	str	r3, [sp, #4]
 798:	e3a03000 	mov	r3, #0
 79c:	e58d2000 	str	r2, [sp]
 7a0:	e1a02001 	mov	r2, r1
 7a4:	e1a01003 	mov	r1, r3
 7a8:	ebfffffe 	bl	250 <ioctl_cmd>
 7ac:	e28dd00c 	add	sp, sp, #12
 7b0:	e49df004 	pop	{pc}		; (ldr pc, [sp], #4)

000007b4 <ioctl_ready>:
 7b4:	e92d4010 	push	{r4, lr}
 7b8:	e3a00025 	mov	r0, #37	; 0x25
 7bc:	ebfffffe 	bl	0 <gpio_in>
 7c0:	e16f0f10 	clz	r0, r0
 7c4:	e1a002a0 	lsr	r0, r0, #5
 7c8:	e8bd8010 	pop	{r4, pc}

000007cc <disp_fields>:
 7cc:	e92d4ff8 	push	{r3, r4, r5, r6, r7, r8, r9, sl, fp, lr}
 7d0:	e1a05001 	mov	r5, r1
 7d4:	e5d16000 	ldrb	r6, [r1]
 7d8:	e1a09000 	mov	r9, r0
 7dc:	e1a0a002 	mov	sl, r2
 7e0:	e1a07000 	mov	r7, r0
 7e4:	e3560000 	cmp	r6, #0
 7e8:	08bd8ff8 	popeq	{r3, r4, r5, r6, r7, r8, r9, sl, fp, pc}
 7ec:	e0693007 	rsb	r3, r9, r7
 7f0:	e153000a 	cmp	r3, sl
 7f4:	a8bd8ff8 	popge	{r3, r4, r5, r6, r7, r8, r9, sl, fp, pc}
 7f8:	e2463030 	sub	r3, r6, #48	; 0x30
 7fc:	e3a04000 	mov	r4, #0
 800:	e6ef3073 	uxtb	r3, r3
 804:	e3530009 	cmp	r3, #9
 808:	8a000006 	bhi	828 <disp_fields+0x5c>
 80c:	e0844104 	add	r4, r4, r4, lsl #2
 810:	e0864084 	add	r4, r6, r4, lsl #1
 814:	e5f56001 	ldrb	r6, [r5, #1]!
 818:	e2444030 	sub	r4, r4, #48	; 0x30
 81c:	e2463030 	sub	r3, r6, #48	; 0x30
 820:	e3530009 	cmp	r3, #9
 824:	9afffff8 	bls	80c <disp_fields+0x40>
 828:	e5d53001 	ldrb	r3, [r5, #1]
 82c:	e2855001 	add	r5, r5, #1
 830:	e3530020 	cmp	r3, #32
 834:	90877004 	addls	r7, r7, r4
 838:	8a000015 	bhi	894 <disp_fields+0xc8>
 83c:	e3530020 	cmp	r3, #32
 840:	11a06003 	movne	r6, r3
 844:	1affffe6 	bne	7e4 <disp_fields+0x18>
 848:	e5f56001 	ldrb	r6, [r5, #1]!
 84c:	e3560020 	cmp	r6, #32
 850:	0afffffc 	beq	848 <disp_fields+0x7c>
 854:	e3560000 	cmp	r6, #0
 858:	1affffe3 	bne	7ec <disp_fields+0x20>
 85c:	e8bd8ff8 	pop	{r3, r4, r5, r6, r7, r8, r9, sl, fp, pc}
 860:	e5920018 	ldr	r0, [r2, #24]
 864:	e1530000 	cmp	r3, r0
 868:	b3a03000 	movlt	r3, #0
 86c:	a3a03001 	movge	r3, #1
 870:	e35b000a 	cmp	fp, #10
 874:	03a03000 	moveq	r3, #0
 878:	e3530000 	cmp	r3, #0
 87c:	0a000011 	beq	8c8 <disp_fields+0xfc>
 880:	e5923000 	ldr	r3, [r2]
 884:	e2830001 	add	r0, r3, #1
 888:	e5820000 	str	r0, [r2]
 88c:	e5c3b000 	strb	fp, [r3]
 890:	e5d53000 	ldrb	r3, [r5]
 894:	e353002f 	cmp	r3, #47	; 0x2f
 898:	9a00000e 	bls	8d8 <disp_fields+0x10c>
 89c:	ebfffffe 	bl	0 <__getreent>
 8a0:	e4d5b001 	ldrb	fp, [r5], #1
 8a4:	e1a08000 	mov	r8, r0
 8a8:	ebfffffe 	bl	0 <__getreent>
 8ac:	e5902008 	ldr	r2, [r0, #8]
 8b0:	e5923008 	ldr	r3, [r2, #8]
 8b4:	e2433001 	sub	r3, r3, #1
 8b8:	e3530000 	cmp	r3, #0
 8bc:	e5823008 	str	r3, [r2, #8]
 8c0:	aaffffee 	bge	880 <disp_fields+0xb4>
 8c4:	eaffffe5 	b	860 <disp_fields+0x94>
 8c8:	e1a0100b 	mov	r1, fp
 8cc:	e1a00008 	mov	r0, r8
 8d0:	ebfffffe 	bl	0 <__swbuf_r>
 8d4:	eaffffed 	b	890 <disp_fields+0xc4>
 8d8:	ebfffffe 	bl	0 <__getreent>
 8dc:	e1a08000 	mov	r8, r0
 8e0:	ebfffffe 	bl	0 <__getreent>
 8e4:	e5902008 	ldr	r2, [r0, #8]
 8e8:	e5923008 	ldr	r3, [r2, #8]
 8ec:	e2433001 	sub	r3, r3, #1
 8f0:	e3530000 	cmp	r3, #0
 8f4:	e5823008 	str	r3, [r2, #8]
 8f8:	ba000031 	blt	9c4 <disp_fields+0x1f8>
 8fc:	e5923000 	ldr	r3, [r2]
 900:	e2831001 	add	r1, r3, #1
 904:	e5821000 	str	r1, [r2]
 908:	e3a0203d 	mov	r2, #61	; 0x3d
 90c:	e5c32000 	strb	r2, [r3]
 910:	e3540004 	cmp	r4, #4
 914:	ca000013 	bgt	968 <disp_fields+0x19c>
 918:	e3540000 	cmp	r4, #0
 91c:	0a000037 	beq	a00 <disp_fields+0x234>
 920:	e1a0e184 	lsl	lr, r4, #3
 924:	e3a03000 	mov	r3, #0
 928:	e24ee008 	sub	lr, lr, #8
 92c:	e087c004 	add	ip, r7, r4
 930:	e1a01003 	mov	r1, r3
 934:	e4d72001 	ldrb	r2, [r7], #1
 938:	e356003a 	cmp	r6, #58	; 0x3a
 93c:	1063000e 	rsbne	r0, r3, lr
 940:	01a00003 	moveq	r0, r3
 944:	e157000c 	cmp	r7, ip
 948:	e2833008 	add	r3, r3, #8
 94c:	e1811012 	orr	r1, r1, r2, lsl r0
 950:	1afffff7 	bne	934 <disp_fields+0x168>
 954:	e59f00c0 	ldr	r0, [pc, #192]	; a1c <disp_fields+0x250>
 958:	e1a0700c 	mov	r7, ip
 95c:	ebfffffe 	bl	0 <printf>
 960:	e5d53000 	ldrb	r3, [r5]
 964:	eaffffb4 	b	83c <disp_fields+0x70>
 968:	e0874004 	add	r4, r7, r4
 96c:	e4d71001 	ldrb	r1, [r7], #1
 970:	e59f00a8 	ldr	r0, [pc, #168]	; a20 <disp_fields+0x254>
 974:	ebfffffe 	bl	0 <printf>
 978:	e1570004 	cmp	r7, r4
 97c:	1afffffa 	bne	96c <disp_fields+0x1a0>
 980:	ebfffffe 	bl	0 <__getreent>
 984:	e1a06000 	mov	r6, r0
 988:	ebfffffe 	bl	0 <__getreent>
 98c:	e5902008 	ldr	r2, [r0, #8]
 990:	e5923008 	ldr	r3, [r2, #8]
 994:	e2433001 	sub	r3, r3, #1
 998:	e3530000 	cmp	r3, #0
 99c:	e5823008 	str	r3, [r2, #8]
 9a0:	ba00000e 	blt	9e0 <disp_fields+0x214>
 9a4:	e5923000 	ldr	r3, [r2]
 9a8:	e1a07004 	mov	r7, r4
 9ac:	e2831001 	add	r1, r3, #1
 9b0:	e5821000 	str	r1, [r2]
 9b4:	e3a02020 	mov	r2, #32
 9b8:	e5c32000 	strb	r2, [r3]
 9bc:	e5d53000 	ldrb	r3, [r5]
 9c0:	eaffff9d 	b	83c <disp_fields+0x70>
 9c4:	e5921018 	ldr	r1, [r2, #24]
 9c8:	e1530001 	cmp	r3, r1
 9cc:	aaffffca 	bge	8fc <disp_fields+0x130>
 9d0:	e1a00008 	mov	r0, r8
 9d4:	e3a0103d 	mov	r1, #61	; 0x3d
 9d8:	ebfffffe 	bl	0 <__swbuf_r>
 9dc:	eaffffcb 	b	910 <disp_fields+0x144>
 9e0:	e5921018 	ldr	r1, [r2, #24]
 9e4:	e1530001 	cmp	r3, r1
 9e8:	aaffffed 	bge	9a4 <disp_fields+0x1d8>
 9ec:	e1a00006 	mov	r0, r6
 9f0:	e3a01020 	mov	r1, #32
 9f4:	ebfffffe 	bl	0 <__swbuf_r>
 9f8:	e5d53000 	ldrb	r3, [r5]
 9fc:	eaffff8e 	b	83c <disp_fields+0x70>
 a00:	e1a0c007 	mov	ip, r7
 a04:	e1a01004 	mov	r1, r4
 a08:	e59f000c 	ldr	r0, [pc, #12]	; a1c <disp_fields+0x250>
 a0c:	e1a0700c 	mov	r7, ip
 a10:	ebfffffe 	bl	0 <printf>
 a14:	e5d53000 	ldrb	r3, [r5]
 a18:	eaffff87 	b	83c <disp_fields+0x70>
 a1c:	00000010 	.word	0x00000010
 a20:	00000018 	.word	0x00000018

zw_sdio.o:     file format elf32-littlearm


Disassembly of section .text:

00000000 <log_msg.part.2>:
       0:	e92d40f0 	push	{r4, r5, r6, r7, lr}
       4:	e3a04032 	mov	r4, #50	; 0x32
       8:	e59f6068 	ldr	r6, [pc, #104]	; 78 <log_msg.part.2+0x78>
       c:	e59f5068 	ldr	r5, [pc, #104]	; 7c <log_msg.part.2+0x7c>
      10:	e59f1068 	ldr	r1, [pc, #104]	; 80 <log_msg.part.2+0x80>
      14:	e596e000 	ldr	lr, [r6]
      18:	e5907000 	ldr	r7, [r0]
      1c:	e28ec001 	add	ip, lr, #1
      20:	e781718e 	str	r7, [r1, lr, lsl #3]
      24:	e0c32c95 	smull	r2, r3, r5, ip
      28:	e1d070b4 	ldrh	r7, [r0, #4]
      2c:	e1a02fcc 	asr	r2, ip, #31
      30:	e0623243 	rsb	r3, r2, r3, asr #4
      34:	e59f2048 	ldr	r2, [pc, #72]	; 84 <log_msg.part.2+0x84>
      38:	e0030394 	mul	r3, r4, r3
      3c:	e5920000 	ldr	r0, [r2]
      40:	e063300c 	rsb	r3, r3, ip
      44:	e081118e 	add	r1, r1, lr, lsl #3
      48:	e1530000 	cmp	r3, r0
      4c:	e1c170b4 	strh	r7, [r1, #4]
      50:	e5863000 	str	r3, [r6]
      54:	18bd80f0 	popne	{r4, r5, r6, r7, pc}
      58:	e2833001 	add	r3, r3, #1
      5c:	e0c51395 	smull	r1, r5, r5, r3
      60:	e1a01fc3 	asr	r1, r3, #31
      64:	e0615245 	rsb	r5, r1, r5, asr #4
      68:	e0040594 	mul	r4, r4, r5
      6c:	e0643003 	rsb	r3, r4, r3
      70:	e5823000 	str	r3, [r2]
      74:	e8bd80f0 	pop	{r4, r5, r6, r7, pc}
      78:	00000000 	.word	0x00000000
      7c:	51eb851f 	.word	0x51eb851f
	...

00000088 <sdio_cmd_write>:
      88:	e92d41f0 	push	{r4, r5, r6, r7, r8, lr}
      8c:	e1a07001 	mov	r7, r1
      90:	e1a06000 	mov	r6, r0
      94:	e3a01001 	mov	r1, #1
      98:	e3a00023 	mov	r0, #35	; 0x23
      9c:	ebfffffe 	bl	0 <gpio_mode>
      a0:	e3570000 	cmp	r7, #0
      a4:	c3a04000 	movgt	r4, #0
      a8:	da000015 	ble	104 <sdio_cmd_write+0x7c>
      ac:	e3140007 	tst	r4, #7
      b0:	e3a00023 	mov	r0, #35	; 0x23
      b4:	05d65000 	ldrbeq	r5, [r6]
      b8:	02866001 	addeq	r6, r6, #1
      bc:	e2844001 	add	r4, r4, #1
      c0:	e2051080 	and	r1, r5, #128	; 0x80
      c4:	ebfffffe 	bl	0 <gpio_out>
      c8:	e3a00001 	mov	r0, #1
      cc:	ebfffffe 	bl	0 <usdelay>
      d0:	e3a01001 	mov	r1, #1
      d4:	e3a00022 	mov	r0, #34	; 0x22
      d8:	ebfffffe 	bl	0 <gpio_out>
      dc:	e3a00001 	mov	r0, #1
      e0:	ebfffffe 	bl	0 <usdelay>
      e4:	e1a05085 	lsl	r5, r5, #1
      e8:	e3a01000 	mov	r1, #0
      ec:	e3a00022 	mov	r0, #34	; 0x22
      f0:	e6ef4074 	uxtb	r4, r4
      f4:	ebfffffe 	bl	0 <gpio_out>
      f8:	e1540007 	cmp	r4, r7
      fc:	e6ef5075 	uxtb	r5, r5
     100:	baffffe9 	blt	ac <sdio_cmd_write+0x24>
     104:	e3a01000 	mov	r1, #0
     108:	e3a00023 	mov	r0, #35	; 0x23
     10c:	e8bd41f0 	pop	{r4, r5, r6, r7, r8, lr}
     110:	eafffffe 	b	0 <gpio_mode>

00000114 <sdio_rsp_read>:
     114:	e92d41f0 	push	{r4, r5, r6, r7, r8, lr}
     118:	e3a04000 	mov	r4, #0
     11c:	e5c04000 	strb	r4, [r0]
     120:	e1a05000 	mov	r5, r0
     124:	e3a00001 	mov	r0, #1
     128:	e1a06002 	mov	r6, r2
     12c:	e1a07001 	mov	r7, r1
     130:	ebfffffe 	bl	0 <usdelay>
     134:	e3a01001 	mov	r1, #1
     138:	e3a00022 	mov	r0, #34	; 0x22
     13c:	ebfffffe 	bl	0 <gpio_out>
     140:	e1a00006 	mov	r0, r6
     144:	ebfffffe 	bl	0 <gpio_in>
     148:	e1a08000 	mov	r8, r0
     14c:	e3a00001 	mov	r0, #1
     150:	ebfffffe 	bl	0 <usdelay>
     154:	e1a01004 	mov	r1, r4
     158:	e3a00022 	mov	r0, #34	; 0x22
     15c:	ebfffffe 	bl	0 <gpio_out>
     160:	e3a04013 	mov	r4, #19
     164:	e3580000 	cmp	r8, #0
     168:	e3a00001 	mov	r0, #1
     16c:	0a000012 	beq	1bc <sdio_rsp_read+0xa8>
     170:	ebfffffe 	bl	0 <usdelay>
     174:	e3a01001 	mov	r1, #1
     178:	e3a00022 	mov	r0, #34	; 0x22
     17c:	ebfffffe 	bl	0 <gpio_out>
     180:	e1a00006 	mov	r0, r6
     184:	ebfffffe 	bl	0 <gpio_in>
     188:	e1a08000 	mov	r8, r0
     18c:	e3a00001 	mov	r0, #1
     190:	ebfffffe 	bl	0 <usdelay>
     194:	e3a00022 	mov	r0, #34	; 0x22
     198:	e3a01000 	mov	r1, #0
     19c:	ebfffffe 	bl	0 <gpio_out>
     1a0:	e2440001 	sub	r0, r4, #1
     1a4:	e21040ff 	ands	r4, r0, #255	; 0xff
     1a8:	1affffed 	bne	164 <sdio_rsp_read+0x50>
     1ac:	e3580000 	cmp	r8, #0
     1b0:	0a000001 	beq	1bc <sdio_rsp_read+0xa8>
     1b4:	e1a00004 	mov	r0, r4
     1b8:	e8bd81f0 	pop	{r4, r5, r6, r7, r8, pc}
     1bc:	e3570001 	cmp	r7, #1
     1c0:	da00001b 	ble	234 <sdio_rsp_read+0x120>
     1c4:	e3a08001 	mov	r8, #1
     1c8:	ea000002 	b	1d8 <sdio_rsp_read+0xc4>
     1cc:	e2183007 	ands	r3, r8, #7
     1d0:	05c53001 	strbeq	r3, [r5, #1]
     1d4:	02855001 	addeq	r5, r5, #1
     1d8:	e3a00001 	mov	r0, #1
     1dc:	ebfffffe 	bl	0 <usdelay>
     1e0:	e3a01001 	mov	r1, #1
     1e4:	e3a00022 	mov	r0, #34	; 0x22
     1e8:	ebfffffe 	bl	0 <gpio_out>
     1ec:	e1a00006 	mov	r0, r6
     1f0:	e5d54000 	ldrb	r4, [r5]
     1f4:	ebfffffe 	bl	0 <gpio_in>
     1f8:	e2888001 	add	r8, r8, #1
     1fc:	e1a04084 	lsl	r4, r4, #1
     200:	e6ef8078 	uxtb	r8, r8
     204:	e6af4074 	sxtb	r4, r4
     208:	e1840000 	orr	r0, r4, r0
     20c:	e5c50000 	strb	r0, [r5]
     210:	e3a00001 	mov	r0, #1
     214:	ebfffffe 	bl	0 <usdelay>
     218:	e3a00022 	mov	r0, #34	; 0x22
     21c:	e3a01000 	mov	r1, #0
     220:	ebfffffe 	bl	0 <gpio_out>
     224:	e1580007 	cmp	r8, r7
     228:	e1a00008 	mov	r0, r8
     22c:	baffffe6 	blt	1cc <sdio_rsp_read+0xb8>
     230:	e8bd81f0 	pop	{r4, r5, r6, r7, r8, pc}
     234:	e3a00001 	mov	r0, #1
     238:	e8bd81f0 	pop	{r4, r5, r6, r7, r8, pc}

0000023c <sdio_rsp_block_read>:
     23c:	e92d4ff0 	push	{r4, r5, r6, r7, r8, r9, sl, fp, lr}
     240:	e2519000 	subs	r9, r1, #0
     244:	e24dd01c 	sub	sp, sp, #28
     248:	e3a01000 	mov	r1, #0
     24c:	e5c01000 	strb	r1, [r0]
     250:	e1a08000 	mov	r8, r0
     254:	15c91000 	strbne	r1, [r9]
     258:	e3a00001 	mov	r0, #1
     25c:	e58d2008 	str	r2, [sp, #8]
     260:	e58d300c 	str	r3, [sp, #12]
     264:	ebfffffe 	bl	0 <usdelay>
     268:	e3a01001 	mov	r1, #1
     26c:	e3a00022 	mov	r0, #34	; 0x22
     270:	ebfffffe 	bl	0 <gpio_out>
     274:	e3a00023 	mov	r0, #35	; 0x23
     278:	ebfffffe 	bl	0 <gpio_in>
     27c:	e3a04013 	mov	r4, #19
     280:	e1a05000 	mov	r5, r0
     284:	e3a00001 	mov	r0, #1
     288:	ebfffffe 	bl	0 <usdelay>
     28c:	e3a01000 	mov	r1, #0
     290:	e3a00022 	mov	r0, #34	; 0x22
     294:	ebfffffe 	bl	0 <gpio_out>
     298:	e3550000 	cmp	r5, #0
     29c:	e3a00001 	mov	r0, #1
     2a0:	0a000016 	beq	300 <sdio_rsp_block_read+0xc4>
     2a4:	ebfffffe 	bl	0 <usdelay>
     2a8:	e3a01001 	mov	r1, #1
     2ac:	e3a00022 	mov	r0, #34	; 0x22
     2b0:	ebfffffe 	bl	0 <gpio_out>
     2b4:	e3a00023 	mov	r0, #35	; 0x23
     2b8:	ebfffffe 	bl	0 <gpio_in>
     2bc:	e1a05000 	mov	r5, r0
     2c0:	e3a00001 	mov	r0, #1
     2c4:	ebfffffe 	bl	0 <usdelay>
     2c8:	e3a01000 	mov	r1, #0
     2cc:	e3a00022 	mov	r0, #34	; 0x22
     2d0:	ebfffffe 	bl	0 <gpio_out>
     2d4:	e2544001 	subs	r4, r4, #1
     2d8:	1affffee 	bne	298 <sdio_rsp_block_read+0x5c>
     2dc:	e3550000 	cmp	r5, #0
     2e0:	0a000006 	beq	300 <sdio_rsp_block_read+0xc4>
     2e4:	e59d100c 	ldr	r1, [sp, #12]
     2e8:	e3a02000 	mov	r2, #0
     2ec:	e3a03000 	mov	r3, #0
     2f0:	e1a00004 	mov	r0, r4
     2f4:	e1c120f0 	strd	r2, [r1]
     2f8:	e28dd01c 	add	sp, sp, #28
     2fc:	e8bd8ff0 	pop	{r4, r5, r6, r7, r8, r9, sl, fp, pc}
     300:	e3a07000 	mov	r7, #0
     304:	e1a04007 	mov	r4, r7
     308:	e3a0a000 	mov	sl, #0
     30c:	e3a0b000 	mov	fp, #0
     310:	e3a06001 	mov	r6, #1
     314:	e3a00001 	mov	r0, #1
     318:	ebfffffe 	bl	0 <usdelay>
     31c:	e3a01001 	mov	r1, #1
     320:	e3a00022 	mov	r0, #34	; 0x22
     324:	ebfffffe 	bl	0 <gpio_out>
     328:	e356002f 	cmp	r6, #47	; 0x2f
     32c:	ca00000a 	bgt	35c <sdio_rsp_block_read+0x120>
     330:	e2165007 	ands	r5, r6, #7
     334:	05c85001 	strbeq	r5, [r8, #1]
     338:	15d85000 	ldrbne	r5, [r8]
     33c:	e3a00023 	mov	r0, #35	; 0x23
     340:	02888001 	addeq	r8, r8, #1
     344:	e2866001 	add	r6, r6, #1
     348:	11a05085 	lslne	r5, r5, #1
     34c:	16af5075 	sxtbne	r5, r5
     350:	ebfffffe 	bl	0 <gpio_in>
     354:	e1850000 	orr	r0, r5, r0
     358:	e5c80000 	strb	r0, [r8]
     35c:	e3570000 	cmp	r7, #0
     360:	e3a01004 	mov	r1, #4
     364:	e3a00024 	mov	r0, #36	; 0x24
     368:	0a000053 	beq	4bc <sdio_rsp_block_read+0x280>
     36c:	ebfffffe 	bl	0 <gpio_read>
     370:	e3590000 	cmp	r9, #0
     374:	0a000028 	beq	41c <sdio_rsp_block_read+0x1e0>
     378:	e59d3008 	ldr	r3, [sp, #8]
     37c:	e15301c4 	cmp	r3, r4, asr #3
     380:	c5d93000 	ldrbgt	r3, [r9]
     384:	c1803203 	orrgt	r3, r0, r3, lsl #4
     388:	c5c93000 	strbgt	r3, [r9]
     38c:	e020000a 	eor	r0, r0, sl
     390:	e1a0322a 	lsr	r3, sl, #4
     394:	e200000f 	and	r0, r0, #15
     398:	e58d3000 	str	r3, [sp]
     39c:	e59f312c 	ldr	r3, [pc, #300]	; 4d0 <sdio_rsp_block_read+0x294>
     3a0:	e1a00180 	lsl	r0, r0, #3
     3a4:	e1a0222b 	lsr	r2, fp, #4
     3a8:	e18000d3 	ldrd	r0, [r0, r3]
     3ac:	e59d3000 	ldr	r3, [sp]
     3b0:	e58d2004 	str	r2, [sp, #4]
     3b4:	e1833e0b 	orr	r3, r3, fp, lsl #28
     3b8:	e2844004 	add	r4, r4, #4
     3bc:	e59d2008 	ldr	r2, [sp, #8]
     3c0:	e58d3000 	str	r3, [sp]
     3c4:	e1cda0d0 	ldrd	sl, [sp]
     3c8:	e1a031c4 	asr	r3, r4, #3
     3cc:	e2822007 	add	r2, r2, #7
     3d0:	e1520003 	cmp	r2, r3
     3d4:	b3a05000 	movlt	r5, #0
     3d8:	e02aa000 	eor	sl, sl, r0
     3dc:	e02bb001 	eor	fp, fp, r1
     3e0:	b1a07005 	movlt	r7, r5
     3e4:	ba000023 	blt	478 <sdio_rsp_block_read+0x23c>
     3e8:	e59d2008 	ldr	r2, [sp, #8]
     3ec:	e1520003 	cmp	r2, r3
     3f0:	da000002 	ble	400 <sdio_rsp_block_read+0x1c4>
     3f4:	e2143007 	ands	r3, r4, #7
     3f8:	05c93001 	strbeq	r3, [r9, #1]
     3fc:	02899001 	addeq	r9, r9, #1
     400:	e3a00001 	mov	r0, #1
     404:	ebfffffe 	bl	0 <usdelay>
     408:	e3a01000 	mov	r1, #0
     40c:	e3a00022 	mov	r0, #34	; 0x22
     410:	ebfffffe 	bl	0 <gpio_out>
     414:	e3a07001 	mov	r7, #1
     418:	eaffffbd 	b	314 <sdio_rsp_block_read+0xd8>
     41c:	e020300a 	eor	r3, r0, sl
     420:	e1a0222a 	lsr	r2, sl, #4
     424:	e203300f 	and	r3, r3, #15
     428:	e58d2010 	str	r2, [sp, #16]
     42c:	e59f209c 	ldr	r2, [pc, #156]	; 4d0 <sdio_rsp_block_read+0x294>
     430:	e1a03183 	lsl	r3, r3, #3
     434:	e59d1010 	ldr	r1, [sp, #16]
     438:	e0822003 	add	r2, r2, r3
     43c:	e1811e0b 	orr	r1, r1, fp, lsl #28
     440:	e1c220d0 	ldrd	r2, [r2]
     444:	e58d1010 	str	r1, [sp, #16]
     448:	e1a0122b 	lsr	r1, fp, #4
     44c:	e58d1014 	str	r1, [sp, #20]
     450:	e59d1008 	ldr	r1, [sp, #8]
     454:	e1cda1d0 	ldrd	sl, [sp, #16]
     458:	e2844004 	add	r4, r4, #4
     45c:	e2811007 	add	r1, r1, #7
     460:	e15101c4 	cmp	r1, r4, asr #3
     464:	e02aa002 	eor	sl, sl, r2
     468:	e02bb003 	eor	fp, fp, r3
     46c:	aaffffe3 	bge	400 <sdio_rsp_block_read+0x1c4>
     470:	e1a05009 	mov	r5, r9
     474:	e1a07009 	mov	r7, r9
     478:	e3a00001 	mov	r0, #1
     47c:	ebfffffe 	bl	0 <usdelay>
     480:	e356002f 	cmp	r6, #47	; 0x2f
     484:	d3855001 	orrle	r5, r5, #1
     488:	e3a01000 	mov	r1, #0
     48c:	e3a00022 	mov	r0, #34	; 0x22
     490:	ebfffffe 	bl	0 <gpio_out>
     494:	e21550ff 	ands	r5, r5, #255	; 0xff
     498:	1affff9d 	bne	314 <sdio_rsp_block_read+0xd8>
     49c:	e59d300c 	ldr	r3, [sp, #12]
     4a0:	e2444040 	sub	r4, r4, #64	; 0x40
     4a4:	e3540000 	cmp	r4, #0
     4a8:	c1a001c4 	asrgt	r0, r4, #3
     4ac:	d1a00005 	movle	r0, r5
     4b0:	e1c3a0f0 	strd	sl, [r3]
     4b4:	e28dd01c 	add	sp, sp, #28
     4b8:	e8bd8ff0 	pop	{r4, r5, r6, r7, r8, r9, sl, fp, pc}
     4bc:	ebfffffe 	bl	0 <gpio_read>
     4c0:	e16f7f10 	clz	r7, r0
     4c4:	e1a072a7 	lsr	r7, r7, #5
     4c8:	e1a05007 	mov	r5, r7
     4cc:	eaffffe9 	b	478 <sdio_rsp_block_read+0x23c>
     4d0:	00000000 	.word	0x00000000

000004d4 <clk_0>:
     4d4:	e3500000 	cmp	r0, #0
     4d8:	e92d4070 	push	{r4, r5, r6, lr}
     4dc:	11a05000 	movne	r5, r0
     4e0:	e59f4088 	ldr	r4, [pc, #136]	; 570 <clk_0+0x9c>
     4e4:	0a000013 	beq	538 <clk_0+0x64>
     4e8:	e3a00001 	mov	r0, #1
     4ec:	ebfffffe 	bl	0 <usdelay>
     4f0:	e5d43000 	ldrb	r3, [r4]
     4f4:	e16f3f13 	clz	r3, r3
     4f8:	e1a032a3 	lsr	r3, r3, #5
     4fc:	e1a01003 	mov	r1, r3
     500:	e3a00022 	mov	r0, #34	; 0x22
     504:	e5c43000 	strb	r3, [r4]
     508:	ebfffffe 	bl	0 <gpio_out>
     50c:	e3a00001 	mov	r0, #1
     510:	ebfffffe 	bl	0 <usdelay>
     514:	e5d43000 	ldrb	r3, [r4]
     518:	e16f3f13 	clz	r3, r3
     51c:	e1a032a3 	lsr	r3, r3, #5
     520:	e1a01003 	mov	r1, r3
     524:	e3a00022 	mov	r0, #34	; 0x22
     528:	e5c43000 	strb	r3, [r4]
     52c:	ebfffffe 	bl	0 <gpio_out>
     530:	e2555001 	subs	r5, r5, #1
     534:	1affffeb 	bne	4e8 <clk_0+0x14>
     538:	e5d43000 	ldrb	r3, [r4]
     53c:	e59f402c 	ldr	r4, [pc, #44]	; 570 <clk_0+0x9c>
     540:	e3530000 	cmp	r3, #0
     544:	08bd8070 	popeq	{r4, r5, r6, pc}
     548:	e3a00001 	mov	r0, #1
     54c:	ebfffffe 	bl	0 <usdelay>
     550:	e5d43000 	ldrb	r3, [r4]
     554:	e16f3f13 	clz	r3, r3
     558:	e1a032a3 	lsr	r3, r3, #5
     55c:	e5c43000 	strb	r3, [r4]
     560:	e1a01003 	mov	r1, r3
     564:	e3a00022 	mov	r0, #34	; 0x22
     568:	e8bd4070 	pop	{r4, r5, r6, lr}
     56c:	eafffffe 	b	0 <gpio_out>
     570:	00000000 	.word	0x00000000

00000574 <sdio_block_out>:
     574:	e92d4ff8 	push	{r3, r4, r5, r6, r7, r8, r9, sl, fp, lr}
     578:	e1a07001 	mov	r7, r1
     57c:	e1a0a000 	mov	sl, r0
     580:	e3a00001 	mov	r0, #1
     584:	ebfffffe 	bl	4d4 <clk_0>
     588:	e3a02000 	mov	r2, #0
     58c:	e3a01004 	mov	r1, #4
     590:	e3a00024 	mov	r0, #36	; 0x24
     594:	ebfffffe 	bl	0 <gpio_write>
     598:	e1a07187 	lsl	r7, r7, #3
     59c:	e3a00001 	mov	r0, #1
     5a0:	ebfffffe 	bl	4d4 <clk_0>
     5a4:	e3570000 	cmp	r7, #0
     5a8:	e3a04000 	mov	r4, #0
     5ac:	e3a05000 	mov	r5, #0
     5b0:	da00001b 	ble	624 <sdio_block_out+0xb0>
     5b4:	e3a0b000 	mov	fp, #0
     5b8:	e7da61cb 	ldrb	r6, [sl, fp, asr #3]
     5bc:	e31b0007 	tst	fp, #7
     5c0:	e3a01004 	mov	r1, #4
     5c4:	1206600f 	andne	r6, r6, #15
     5c8:	01a06226 	lsreq	r6, r6, #4
     5cc:	e1a02006 	mov	r2, r6
     5d0:	e3a00024 	mov	r0, #36	; 0x24
     5d4:	e0266004 	eor	r6, r6, r4
     5d8:	ebfffffe 	bl	0 <gpio_write>
     5dc:	e206600f 	and	r6, r6, #15
     5e0:	e3a01001 	mov	r1, #1
     5e4:	e3a00022 	mov	r0, #34	; 0x22
     5e8:	ebfffffe 	bl	0 <gpio_out>
     5ec:	e59f3094 	ldr	r3, [pc, #148]	; 688 <sdio_block_out+0x114>
     5f0:	e1a06186 	lsl	r6, r6, #3
     5f4:	e1a08224 	lsr	r8, r4, #4
     5f8:	e18320d6 	ldrd	r2, [r3, r6]
     5fc:	e1888e05 	orr	r8, r8, r5, lsl #28
     600:	e1a09225 	lsr	r9, r5, #4
     604:	e28bb004 	add	fp, fp, #4
     608:	e3a01000 	mov	r1, #0
     60c:	e3a00022 	mov	r0, #34	; 0x22
     610:	e0284002 	eor	r4, r8, r2
     614:	e0295003 	eor	r5, r9, r3
     618:	ebfffffe 	bl	0 <gpio_out>
     61c:	e157000b 	cmp	r7, fp
     620:	caffffe4 	bgt	5b8 <sdio_block_out+0x44>
     624:	e3a06010 	mov	r6, #16
     628:	e204200f 	and	r2, r4, #15
     62c:	e3a01004 	mov	r1, #4
     630:	e3a00024 	mov	r0, #36	; 0x24
     634:	ebfffffe 	bl	0 <gpio_write>
     638:	e3a01001 	mov	r1, #1
     63c:	e3a00022 	mov	r0, #34	; 0x22
     640:	ebfffffe 	bl	0 <gpio_out>
     644:	e1a03224 	lsr	r3, r4, #4
     648:	e1833e05 	orr	r3, r3, r5, lsl #28
     64c:	e1a02225 	lsr	r2, r5, #4
     650:	e3a01000 	mov	r1, #0
     654:	e3a00022 	mov	r0, #34	; 0x22
     658:	e1a04003 	mov	r4, r3
     65c:	e1a05002 	mov	r5, r2
     660:	ebfffffe 	bl	0 <gpio_out>
     664:	e2566001 	subs	r6, r6, #1
     668:	1affffee 	bne	628 <sdio_block_out+0xb4>
     66c:	e3a00024 	mov	r0, #36	; 0x24
     670:	e3a0200f 	mov	r2, #15
     674:	e3a01004 	mov	r1, #4
     678:	ebfffffe 	bl	0 <gpio_write>
     67c:	e3a00001 	mov	r0, #1
     680:	e8bd4ff8 	pop	{r3, r4, r5, r6, r7, r8, r9, sl, fp, lr}
     684:	eafffffe 	b	4d4 <clk_0>
     688:	00000000 	.word	0x00000000

0000068c <sdio_rsp_block_write>:
     68c:	e92d4070 	push	{r4, r5, r6, lr}
     690:	e1a04002 	mov	r4, r2
     694:	e1a05001 	mov	r5, r1
     698:	e3a02023 	mov	r2, #35	; 0x23
     69c:	e3a01030 	mov	r1, #48	; 0x30
     6a0:	ebfffffe 	bl	114 <sdio_rsp_read>
     6a4:	e3500000 	cmp	r0, #0
     6a8:	01a04000 	moveq	r4, r0
     6ac:	0a000020 	beq	734 <sdio_rsp_block_write+0xa8>
     6b0:	e3a00001 	mov	r0, #1
     6b4:	ebfffffe 	bl	4d4 <clk_0>
     6b8:	e3a020ff 	mov	r2, #255	; 0xff
     6bc:	e3a01004 	mov	r1, #4
     6c0:	e3a00024 	mov	r0, #36	; 0x24
     6c4:	ebfffffe 	bl	0 <gpio_write>
     6c8:	e3a01001 	mov	r1, #1
     6cc:	e3a00024 	mov	r0, #36	; 0x24
     6d0:	ebfffffe 	bl	0 <gpio_mode>
     6d4:	e3a01001 	mov	r1, #1
     6d8:	e3a00025 	mov	r0, #37	; 0x25
     6dc:	ebfffffe 	bl	0 <gpio_mode>
     6e0:	e3a01001 	mov	r1, #1
     6e4:	e3a00026 	mov	r0, #38	; 0x26
     6e8:	ebfffffe 	bl	0 <gpio_mode>
     6ec:	e3a01001 	mov	r1, #1
     6f0:	e3a00027 	mov	r0, #39	; 0x27
     6f4:	ebfffffe 	bl	0 <gpio_mode>
     6f8:	e1a01004 	mov	r1, r4
     6fc:	e1a00005 	mov	r0, r5
     700:	ebfffffe 	bl	574 <sdio_block_out>
     704:	e3a01000 	mov	r1, #0
     708:	e3a00024 	mov	r0, #36	; 0x24
     70c:	ebfffffe 	bl	0 <gpio_mode>
     710:	e3a01000 	mov	r1, #0
     714:	e3a00025 	mov	r0, #37	; 0x25
     718:	ebfffffe 	bl	0 <gpio_mode>
     71c:	e3a01000 	mov	r1, #0
     720:	e3a00026 	mov	r0, #38	; 0x26
     724:	ebfffffe 	bl	0 <gpio_mode>
     728:	e3a01000 	mov	r1, #0
     72c:	e3a00027 	mov	r0, #39	; 0x27
     730:	ebfffffe 	bl	0 <gpio_mode>
     734:	e3a00001 	mov	r0, #1
     738:	ebfffffe 	bl	4d4 <clk_0>
     73c:	e1a00004 	mov	r0, r4
     740:	e8bd8070 	pop	{r4, r5, r6, pc}

00000744 <sdio_cmd_rsp>:
     744:	e92d4070 	push	{r4, r5, r6, lr}
     748:	e1a05000 	mov	r5, r0
     74c:	e24dd008 	sub	sp, sp, #8
     750:	e3a00002 	mov	r0, #2
     754:	e1a04001 	mov	r4, r1
     758:	ebfffffe 	bl	4d4 <clk_0>
     75c:	e59fc094 	ldr	ip, [pc, #148]	; 7f8 <sdio_cmd_rsp+0xb4>
     760:	e2850005 	add	r0, r5, #5
     764:	e1a02005 	mov	r2, r5
     768:	e3a01000 	mov	r1, #0
     76c:	e4d23001 	ldrb	r3, [r2], #1
     770:	e0233001 	eor	r3, r3, r1
     774:	e1520000 	cmp	r2, r0
     778:	e7dc1003 	ldrb	r1, [ip, r3]
     77c:	1afffffa 	bne	76c <sdio_cmd_rsp+0x28>
     780:	e59f6074 	ldr	r6, [pc, #116]	; 7fc <sdio_cmd_rsp+0xb8>
     784:	e3813001 	orr	r3, r1, #1
     788:	e5c53005 	strb	r3, [r5, #5]
     78c:	e5963000 	ldr	r3, [r6]
     790:	e3540000 	cmp	r4, #0
     794:	01a0400d 	moveq	r4, sp
     798:	e3530000 	cmp	r3, #0
     79c:	1a000012 	bne	7ec <sdio_cmd_rsp+0xa8>
     7a0:	e1a00005 	mov	r0, r5
     7a4:	e3a01030 	mov	r1, #48	; 0x30
     7a8:	ebfffffe 	bl	88 <sdio_cmd_write>
     7ac:	e3a03000 	mov	r3, #0
     7b0:	e5843000 	str	r3, [r4]
     7b4:	e1c430b4 	strh	r3, [r4, #4]
     7b8:	e3a02023 	mov	r2, #35	; 0x23
     7bc:	e3a01030 	mov	r1, #48	; 0x30
     7c0:	e1a00004 	mov	r0, r4
     7c4:	ebfffffe 	bl	114 <sdio_rsp_read>
     7c8:	e5963000 	ldr	r3, [r6]
     7cc:	e3530000 	cmp	r3, #0
     7d0:	e1a05000 	mov	r5, r0
     7d4:	0a000001 	beq	7e0 <sdio_cmd_rsp+0x9c>
     7d8:	e1a00004 	mov	r0, r4
     7dc:	ebfffe07 	bl	0 <log_msg.part.2>
     7e0:	e1a00005 	mov	r0, r5
     7e4:	e28dd008 	add	sp, sp, #8
     7e8:	e8bd8070 	pop	{r4, r5, r6, pc}
     7ec:	e1a00005 	mov	r0, r5
     7f0:	ebfffe02 	bl	0 <log_msg.part.2>
     7f4:	eaffffe9 	b	7a0 <sdio_cmd_rsp+0x5c>
	...

00000800 <sdio_cmd7>:
     800:	e6bf0fb0 	rev16	r0, r0
     804:	e92d4010 	push	{r4, lr}
     808:	e6ff3070 	uxth	r3, r0
     80c:	e24dd008 	sub	sp, sp, #8
     810:	e3a02000 	mov	r2, #0
     814:	e1a04423 	lsr	r4, r3, #8
     818:	e3a0e047 	mov	lr, #71	; 0x47
     81c:	e3a0c001 	mov	ip, #1
     820:	e1a0000d 	mov	r0, sp
     824:	e58d2000 	str	r2, [sp]
     828:	e58d2004 	str	r2, [sp, #4]
     82c:	e5cd4002 	strb	r4, [sp, #2]
     830:	e5cd3001 	strb	r3, [sp, #1]
     834:	e5cde000 	strb	lr, [sp]
     838:	e5cdc005 	strb	ip, [sp, #5]
     83c:	ebfffffe 	bl	744 <sdio_cmd_rsp>
     840:	e28dd008 	add	sp, sp, #8
     844:	e8bd8010 	pop	{r4, pc}

00000848 <sdio_cmd52>:
     848:	e92d4030 	push	{r4, r5, lr}
     84c:	e24dd00c 	sub	sp, sp, #12
     850:	e1a0c7c1 	asr	ip, r1, #15
     854:	e59de018 	ldr	lr, [sp, #24]
     858:	e2000007 	and	r0, r0, #7
     85c:	e20ee001 	and	lr, lr, #1
     860:	e20cc003 	and	ip, ip, #3
     864:	e18cc18e 	orr	ip, ip, lr, lsl #3
     868:	e2033001 	and	r3, r3, #1
     86c:	e18cc200 	orr	ip, ip, r0, lsl #4
     870:	e18c3383 	orr	r3, ip, r3, lsl #7
     874:	e1a053c1 	asr	r5, r1, #7
     878:	e1a0c081 	lsl	ip, r1, #1
     87c:	e3a0e074 	mov	lr, #116	; 0x74
     880:	e5cd3001 	strb	r3, [sp, #1]
     884:	e3a04000 	mov	r4, #0
     888:	e3a03001 	mov	r3, #1
     88c:	e1a0000d 	mov	r0, sp
     890:	e59d101c 	ldr	r1, [sp, #28]
     894:	e58d4004 	str	r4, [sp, #4]
     898:	e5cd5002 	strb	r5, [sp, #2]
     89c:	e5cdc003 	strb	ip, [sp, #3]
     8a0:	e5cde000 	strb	lr, [sp]
     8a4:	e5cd2004 	strb	r2, [sp, #4]
     8a8:	e5cd3005 	strb	r3, [sp, #5]
     8ac:	ebfffffe 	bl	744 <sdio_cmd_rsp>
     8b0:	e28dd00c 	add	sp, sp, #12
     8b4:	e8bd8030 	pop	{r4, r5, pc}

000008b8 <sdio_cmd52_writes>:
     8b8:	e3530000 	cmp	r3, #0
     8bc:	e92d43f0 	push	{r4, r5, r6, r7, r8, r9, lr}
     8c0:	e24dd00c 	sub	sp, sp, #12
     8c4:	0a000015 	beq	920 <sdio_cmd52_writes+0x68>
     8c8:	e3a07000 	mov	r7, #0
     8cc:	e1a09000 	mov	r9, r0
     8d0:	e1a0c001 	mov	ip, r1
     8d4:	e1a06002 	mov	r6, r2
     8d8:	e1a05003 	mov	r5, r3
     8dc:	e1a08007 	mov	r8, r7
     8e0:	e3a03001 	mov	r3, #1
     8e4:	e6ef2076 	uxtb	r2, r6
     8e8:	e1a0100c 	mov	r1, ip
     8ec:	e58d8004 	str	r8, [sp, #4]
     8f0:	e58d8000 	str	r8, [sp]
     8f4:	e1a00009 	mov	r0, r9
     8f8:	e08c4003 	add	r4, ip, r3
     8fc:	ebfffffe 	bl	848 <sdio_cmd52>
     900:	e2555001 	subs	r5, r5, #1
     904:	e1a06426 	lsr	r6, r6, #8
     908:	e1a0c004 	mov	ip, r4
     90c:	e0877000 	add	r7, r7, r0
     910:	1afffff2 	bne	8e0 <sdio_cmd52_writes+0x28>
     914:	e1a00007 	mov	r0, r7
     918:	e28dd00c 	add	sp, sp, #12
     91c:	e8bd83f0 	pop	{r4, r5, r6, r7, r8, r9, pc}
     920:	e1a07003 	mov	r7, r3
     924:	eafffffa 	b	914 <sdio_cmd52_writes+0x5c>

00000928 <sdio_bak_window>:
     928:	e92d4070 	push	{r4, r5, r6, lr}
     92c:	e3c00c7f 	bic	r0, r0, #32512	; 0x7f00
     930:	e59f5028 	ldr	r5, [pc, #40]	; 960 <sdio_bak_window+0x38>
     934:	e3c040ff 	bic	r4, r0, #255	; 0xff
     938:	e5953000 	ldr	r3, [r5]
     93c:	e1540003 	cmp	r4, r3
     940:	0a000004 	beq	958 <sdio_bak_window+0x30>
     944:	e3a03003 	mov	r3, #3
     948:	e1a02424 	lsr	r2, r4, #8
     94c:	e59f1010 	ldr	r1, [pc, #16]	; 964 <sdio_bak_window+0x3c>
     950:	e3a00001 	mov	r0, #1
     954:	ebfffffe 	bl	8b8 <sdio_cmd52_writes>
     958:	e5854000 	str	r4, [r5]
     95c:	e8bd8070 	pop	{r4, r5, r6, pc}
     960:	00000000 	.word	0x00000000
     964:	0001000a 	.word	0x0001000a

00000968 <sdio_bak_addr>:
     968:	e92d4010 	push	{r4, lr}
     96c:	e1a04000 	mov	r4, r0
     970:	ebfffffe 	bl	928 <sdio_bak_window>
     974:	e1a00884 	lsl	r0, r4, #17
     978:	e1a008a0 	lsr	r0, r0, #17
     97c:	e8bd8010 	pop	{r4, pc}

00000980 <sdio_cmd52_reads>:
     980:	e92d4ff0 	push	{r4, r5, r6, r7, r8, r9, sl, fp, lr}
     984:	e24dd01c 	sub	sp, sp, #28
     988:	e3530000 	cmp	r3, #0
     98c:	e58d200c 	str	r2, [sp, #12]
     990:	da00001a 	ble	a00 <sdio_cmd52_reads+0x80>
     994:	e3a05000 	mov	r5, #0
     998:	e1a09000 	mov	r9, r0
     99c:	e1a04001 	mov	r4, r1
     9a0:	e0818003 	add	r8, r1, r3
     9a4:	e1a06005 	mov	r6, r5
     9a8:	e1a07005 	mov	r7, r5
     9ac:	e1a0b005 	mov	fp, r5
     9b0:	e28da010 	add	sl, sp, #16
     9b4:	e3a03000 	mov	r3, #0
     9b8:	e1a02003 	mov	r2, r3
     9bc:	e1a01004 	mov	r1, r4
     9c0:	e58da004 	str	sl, [sp, #4]
     9c4:	e58db000 	str	fp, [sp]
     9c8:	e1a00009 	mov	r0, r9
     9cc:	ebfffffe 	bl	848 <sdio_cmd52>
     9d0:	e5dd3014 	ldrb	r3, [sp, #20]
     9d4:	e2844001 	add	r4, r4, #1
     9d8:	e1540008 	cmp	r4, r8
     9dc:	e1866513 	orr	r6, r6, r3, lsl r5
     9e0:	e2855008 	add	r5, r5, #8
     9e4:	e0877000 	add	r7, r7, r0
     9e8:	1afffff1 	bne	9b4 <sdio_cmd52_reads+0x34>
     9ec:	e59d300c 	ldr	r3, [sp, #12]
     9f0:	e1a00007 	mov	r0, r7
     9f4:	e5836000 	str	r6, [r3]
     9f8:	e28dd01c 	add	sp, sp, #28
     9fc:	e8bd8ff0 	pop	{r4, r5, r6, r7, r8, r9, sl, fp, pc}
     a00:	e3a06000 	mov	r6, #0
     a04:	e1a07006 	mov	r7, r6
     a08:	eafffff7 	b	9ec <sdio_cmd52_reads+0x6c>

00000a0c <sdio_cmd52_reads_check>:
     a0c:	e92d4030 	push	{r4, r5, lr}
     a10:	e24dd00c 	sub	sp, sp, #12
     a14:	e1a05002 	mov	r5, r2
     a18:	e1a04003 	mov	r4, r3
     a1c:	e28d2004 	add	r2, sp, #4
     a20:	e59d3018 	ldr	r3, [sp, #24]
     a24:	ebfffffe 	bl	980 <sdio_cmd52_reads>
     a28:	e3500000 	cmp	r0, #0
     a2c:	159d0004 	ldrne	r0, [sp, #4]
     a30:	10000005 	andne	r0, r0, r5
     a34:	10640000 	rsbne	r0, r4, r0
     a38:	116f0f10 	clzne	r0, r0
     a3c:	11a002a0 	lsrne	r0, r0, #5
     a40:	e28dd00c 	add	sp, sp, #12
     a44:	e8bd8030 	pop	{r4, r5, pc}

00000a48 <sdio_cmd>:
     a48:	e92d4010 	push	{r4, lr}
     a4c:	e6bf3f31 	rev	r3, r1
     a50:	e24dd008 	sub	sp, sp, #8
     a54:	e200003f 	and	r0, r0, #63	; 0x3f
     a58:	e3800040 	orr	r0, r0, #64	; 0x40
     a5c:	e1a0e823 	lsr	lr, r3, #16
     a60:	e1a01002 	mov	r1, r2
     a64:	e1a04423 	lsr	r4, r3, #8
     a68:	e1a02c23 	lsr	r2, r3, #24
     a6c:	e3a0c000 	mov	ip, #0
     a70:	e5cd0000 	strb	r0, [sp]
     a74:	e5cd3001 	strb	r3, [sp, #1]
     a78:	e1a0000d 	mov	r0, sp
     a7c:	e3a03001 	mov	r3, #1
     a80:	e58dc004 	str	ip, [sp, #4]
     a84:	e5cd4002 	strb	r4, [sp, #2]
     a88:	e5cde003 	strb	lr, [sp, #3]
     a8c:	e5cd2004 	strb	r2, [sp, #4]
     a90:	e5cd3005 	strb	r3, [sp, #5]
     a94:	ebfffffe 	bl	744 <sdio_cmd_rsp>
     a98:	e28dd008 	add	sp, sp, #8
     a9c:	e8bd8010 	pop	{r4, pc}

00000aa0 <crc7_init>:
     aa0:	e59f003c 	ldr	r0, [pc, #60]	; ae4 <crc7_init+0x44>
     aa4:	e3a01000 	mov	r1, #0
     aa8:	e6ff3071 	uxth	r3, r1
     aac:	e3a02008 	mov	r2, #8
     ab0:	e1a03083 	lsl	r3, r3, #1
     ab4:	e2422001 	sub	r2, r2, #1
     ab8:	e6ff3073 	uxth	r3, r3
     abc:	e3130c01 	tst	r3, #256	; 0x100
     ac0:	e6ff2072 	uxth	r2, r2
     ac4:	12233012 	eorne	r3, r3, #18
     ac8:	e3520000 	cmp	r2, #0
     acc:	1afffff7 	bne	ab0 <crc7_init+0x10>
     ad0:	e2811001 	add	r1, r1, #1
     ad4:	e3510c01 	cmp	r1, #256	; 0x100
     ad8:	e5e03001 	strb	r3, [r0, #1]!
     adc:	1afffff1 	bne	aa8 <crc7_init+0x8>
     ae0:	e12fff1e 	bx	lr
     ae4:	ffffffff 	.word	0xffffffff

00000ae8 <add_crc7>:
     ae8:	e52de004 	push	{lr}		; (str lr, [sp, #-4]!)
     aec:	e280c005 	add	ip, r0, #5
     af0:	e59fe024 	ldr	lr, [pc, #36]	; b1c <add_crc7+0x34>
     af4:	e1a02000 	mov	r2, r0
     af8:	e3a01000 	mov	r1, #0
     afc:	e4d23001 	ldrb	r3, [r2], #1
     b00:	e0233001 	eor	r3, r3, r1
     b04:	e152000c 	cmp	r2, ip
     b08:	e7de1003 	ldrb	r1, [lr, r3]
     b0c:	1afffffa 	bne	afc <add_crc7+0x14>
     b10:	e3813001 	orr	r3, r1, #1
     b14:	e5c03005 	strb	r3, [r0, #5]
     b18:	e49df004 	pop	{pc}		; (ldr pc, [sp], #4)
     b1c:	00000000 	.word	0x00000000

00000b20 <crc7_byte>:
     b20:	e3a03008 	mov	r3, #8
     b24:	e1a00080 	lsl	r0, r0, #1
     b28:	e2433001 	sub	r3, r3, #1
     b2c:	e6ff0070 	uxth	r0, r0
     b30:	e3100c01 	tst	r0, #256	; 0x100
     b34:	e6ff3073 	uxth	r3, r3
     b38:	12200012 	eorne	r0, r0, #18
     b3c:	e3530000 	cmp	r3, #0
     b40:	1afffff7 	bne	b24 <crc7_byte+0x4>
     b44:	e6ef0070 	uxtb	r0, r0
     b48:	e12fff1e 	bx	lr

00000b4c <crc7_data>:
     b4c:	e3510000 	cmp	r1, #0
     b50:	0a000009 	beq	b7c <crc7_data+0x30>
     b54:	e59fc028 	ldr	ip, [pc, #40]	; b84 <crc7_data+0x38>
     b58:	e0801001 	add	r1, r0, r1
     b5c:	e3a02000 	mov	r2, #0
     b60:	e4d03001 	ldrb	r3, [r0], #1
     b64:	e0233002 	eor	r3, r3, r2
     b68:	e1500001 	cmp	r0, r1
     b6c:	e7dc2003 	ldrb	r2, [ip, r3]
     b70:	1afffffa 	bne	b60 <crc7_data+0x14>
     b74:	e3820001 	orr	r0, r2, #1
     b78:	e12fff1e 	bx	lr
     b7c:	e3a00001 	mov	r0, #1
     b80:	e12fff1e 	bx	lr
     b84:	00000000 	.word	0x00000000

00000b88 <disp_bytes>:
     b88:	e3510000 	cmp	r1, #0
     b8c:	012fff1e 	bxeq	lr
     b90:	e92d4070 	push	{r4, r5, r6, lr}
     b94:	e1a05000 	mov	r5, r0
     b98:	e1a04001 	mov	r4, r1
     b9c:	e4d51001 	ldrb	r1, [r5], #1
     ba0:	e59f000c 	ldr	r0, [pc, #12]	; bb4 <disp_bytes+0x2c>
     ba4:	ebfffffe 	bl	0 <printf>
     ba8:	e2544001 	subs	r4, r4, #1
     bac:	1afffffa 	bne	b9c <disp_bytes+0x14>
     bb0:	e8bd8070 	pop	{r4, r5, r6, pc}
     bb4:	00000000 	.word	0x00000000

00000bb8 <dump_msg>:
     bb8:	e92d41f0 	push	{r4, r5, r6, r7, r8, lr}
     bbc:	e1a07000 	mov	r7, r0
     bc0:	e59f0060 	ldr	r0, [pc, #96]	; c28 <dump_msg+0x70>
     bc4:	e2871005 	add	r1, r7, #5
     bc8:	e1a04007 	mov	r4, r7
     bcc:	e3a02000 	mov	r2, #0
     bd0:	e4d43001 	ldrb	r3, [r4], #1
     bd4:	e0233002 	eor	r3, r3, r2
     bd8:	e1540001 	cmp	r4, r1
     bdc:	e7d02003 	ldrb	r2, [r0, r3]
     be0:	1afffffa 	bne	bd0 <dump_msg+0x18>
     be4:	e3826001 	orr	r6, r2, #1
     be8:	e2475001 	sub	r5, r7, #1
     bec:	e5f51001 	ldrb	r1, [r5, #1]!
     bf0:	e59f0034 	ldr	r0, [pc, #52]	; c2c <dump_msg+0x74>
     bf4:	ebfffffe 	bl	0 <printf>
     bf8:	e1540005 	cmp	r4, r5
     bfc:	1afffffa 	bne	bec <dump_msg+0x34>
     c00:	e5d70005 	ldrb	r0, [r7, #5]
     c04:	e59f2024 	ldr	r2, [pc, #36]	; c30 <dump_msg+0x78>
     c08:	e59f3024 	ldr	r3, [pc, #36]	; c34 <dump_msg+0x7c>
     c0c:	e1500006 	cmp	r0, r6
     c10:	01a00002 	moveq	r0, r2
     c14:	11a00003 	movne	r0, r3
     c18:	ebfffffe 	bl	0 <printf>
     c1c:	e3a0000a 	mov	r0, #10
     c20:	e8bd41f0 	pop	{r4, r5, r6, r7, r8, lr}
     c24:	eafffffe 	b	0 <putchar>
	...
     c30:	00000008 	.word	0x00000008
     c34:	0000000c 	.word	0x0000000c

00000c38 <qcrc16r_init>:
     c38:	e92d4ff0 	push	{r4, r5, r6, r7, r8, r9, sl, fp, lr}
     c3c:	e3a04000 	mov	r4, #0
     c40:	e3a05000 	mov	r5, #0
     c44:	e24dd00c 	sub	sp, sp, #12
     c48:	e1a02004 	mov	r2, r4
     c4c:	e1a03005 	mov	r3, r5
     c50:	e3a01000 	mov	r1, #0
     c54:	e59f80fc 	ldr	r8, [pc, #252]	; d58 <qcrc16r_init+0x120>
     c58:	e3a0c001 	mov	ip, #1
     c5c:	ea000004 	b	c74 <qcrc16r_init+0x3c>
     c60:	e3160001 	tst	r6, #1
     c64:	11a0201c 	lslne	r2, ip, r0
     c68:	e183373c 	orr	r3, r3, ip, lsr r7
     c6c:	03a02000 	moveq	r2, #0
     c70:	03a03000 	moveq	r3, #0
     c74:	e2811001 	add	r1, r1, #1
     c78:	e3510010 	cmp	r1, #16
     c7c:	e1a00101 	lsl	r0, r1, #2
     c80:	e240e020 	sub	lr, r0, #32
     c84:	e1855003 	orr	r5, r5, r3
     c88:	e2607020 	rsb	r7, r0, #32
     c8c:	e1a06158 	asr	r6, r8, r1
     c90:	e1844002 	orr	r4, r4, r2
     c94:	e1a03e1c 	lsl	r3, ip, lr
     c98:	1afffff0 	bne	c60 <qcrc16r_init+0x28>
     c9c:	e59f30b8 	ldr	r3, [pc, #184]	; d5c <qcrc16r_init+0x124>
     ca0:	e0942004 	adds	r2, r4, r4
     ca4:	e1a07105 	lsl	r7, r5, #2
     ca8:	e1c340f0 	strd	r4, [r3]
     cac:	e0a53005 	adc	r3, r5, r5
     cb0:	e1a06185 	lsl	r6, r5, #3
     cb4:	e1877f24 	orr	r7, r7, r4, lsr #30
     cb8:	e1866ea4 	orr	r6, r6, r4, lsr #29
     cbc:	e1a0a104 	lsl	sl, r4, #2
     cc0:	e1cd20f0 	strd	r2, [sp]
     cc4:	e1a0b184 	lsl	fp, r4, #3
     cc8:	e59fe090 	ldr	lr, [pc, #144]	; d60 <qcrc16r_init+0x128>
     ccc:	e3a0c000 	mov	ip, #0
     cd0:	e3a08000 	mov	r8, #0
     cd4:	e3a09000 	mov	r9, #0
     cd8:	ea000004 	b	cf0 <qcrc16r_init+0xb8>
     cdc:	e31c0008 	tst	ip, #8
     ce0:	03a08000 	moveq	r8, #0
     ce4:	03a09000 	moveq	r9, #0
     ce8:	11a0800b 	movne	r8, fp
     cec:	11a09006 	movne	r9, r6
     cf0:	e31c0004 	tst	ip, #4
     cf4:	03a00000 	moveq	r0, #0
     cf8:	03a01000 	moveq	r1, #0
     cfc:	11a0000a 	movne	r0, sl
     d00:	11a01007 	movne	r1, r7
     d04:	e31c0002 	tst	ip, #2
     d08:	03a02000 	moveq	r2, #0
     d0c:	03a03000 	moveq	r3, #0
     d10:	11cd20d0 	ldrdne	r2, [sp]
     d14:	e31c0001 	tst	ip, #1
     d18:	e1822000 	orr	r2, r2, r0
     d1c:	e1833001 	orr	r3, r3, r1
     d20:	11a00004 	movne	r0, r4
     d24:	11a01005 	movne	r1, r5
     d28:	03a00000 	moveq	r0, #0
     d2c:	03a01000 	moveq	r1, #0
     d30:	e1822000 	orr	r2, r2, r0
     d34:	e1833001 	orr	r3, r3, r1
     d38:	e1822008 	orr	r2, r2, r8
     d3c:	e1833009 	orr	r3, r3, r9
     d40:	e28cc001 	add	ip, ip, #1
     d44:	e35c0010 	cmp	ip, #16
     d48:	e0ce20f8 	strd	r2, [lr], #8
     d4c:	1affffe2 	bne	cdc <qcrc16r_init+0xa4>
     d50:	e28dd00c 	add	sp, sp, #12
     d54:	e8bd8ff0 	pop	{r4, r5, r6, r7, r8, r9, sl, fp, pc}
     d58:	00008408 	.word	0x00008408
	...

00000d64 <quadval>:
     d64:	e92d40f0 	push	{r4, r5, r6, r7, lr}
     d68:	e3a01000 	mov	r1, #0
     d6c:	e3a04000 	mov	r4, #0
     d70:	e3a05000 	mov	r5, #0
     d74:	e3a06001 	mov	r6, #1
     d78:	e1a0e101 	lsl	lr, r1, #2
     d7c:	e24ec020 	sub	ip, lr, #32
     d80:	e26e7020 	rsb	r7, lr, #32
     d84:	e1a03c16 	lsl	r3, r6, ip
     d88:	e1a0c150 	asr	ip, r0, r1
     d8c:	e31c0001 	tst	ip, #1
     d90:	e1833736 	orr	r3, r3, r6, lsr r7
     d94:	11a02e16 	lslne	r2, r6, lr
     d98:	e2811001 	add	r1, r1, #1
     d9c:	03a02000 	moveq	r2, #0
     da0:	03a03000 	moveq	r3, #0
     da4:	e3510010 	cmp	r1, #16
     da8:	e1844002 	orr	r4, r4, r2
     dac:	e1855003 	orr	r5, r5, r3
     db0:	1afffff0 	bne	d78 <quadval+0x14>
     db4:	e1a00004 	mov	r0, r4
     db8:	e1a01005 	mov	r1, r5
     dbc:	e8bd80f0 	pop	{r4, r5, r6, r7, pc}

00000dc0 <disp_cmd52>:
     dc0:	e92d4010 	push	{r4, lr}
     dc4:	e1a04000 	mov	r4, r0
     dc8:	e5d02001 	ldrb	r2, [r0, #1]
     dcc:	e59f3080 	ldr	r3, [pc, #128]	; e54 <disp_cmd52+0x94>
     dd0:	e59f1080 	ldr	r1, [pc, #128]	; e58 <disp_cmd52+0x98>
     dd4:	e3120080 	tst	r2, #128	; 0x80
     dd8:	01a01003 	moveq	r1, r3
     ddc:	e59f0078 	ldr	r0, [pc, #120]	; e5c <disp_cmd52+0x9c>
     de0:	ebfffffe 	bl	0 <printf>
     de4:	e5d41001 	ldrb	r1, [r4, #1]
     de8:	e2111070 	ands	r1, r1, #112	; 0x70
     dec:	0a000016 	beq	e4c <disp_cmd52+0x8c>
     df0:	e59f3068 	ldr	r3, [pc, #104]	; e60 <disp_cmd52+0xa0>
     df4:	e59f2068 	ldr	r2, [pc, #104]	; e64 <disp_cmd52+0xa4>
     df8:	e3510010 	cmp	r1, #16
     dfc:	01a01003 	moveq	r1, r3
     e00:	11a01002 	movne	r1, r2
     e04:	e59f0050 	ldr	r0, [pc, #80]	; e5c <disp_cmd52+0x9c>
     e08:	ebfffffe 	bl	0 <printf>
     e0c:	e5d43001 	ldrb	r3, [r4, #1]
     e10:	e5d42002 	ldrb	r2, [r4, #2]
     e14:	e5d41003 	ldrb	r1, [r4, #3]
     e18:	e2033003 	and	r3, r3, #3
     e1c:	e59f0044 	ldr	r0, [pc, #68]	; e68 <disp_cmd52+0xa8>
     e20:	e1a03783 	lsl	r3, r3, #15
     e24:	e1833382 	orr	r3, r3, r2, lsl #7
     e28:	e18310a1 	orr	r1, r3, r1, lsr #1
     e2c:	ebfffffe 	bl	0 <printf>
     e30:	e5d43001 	ldrb	r3, [r4, #1]
     e34:	e3130080 	tst	r3, #128	; 0x80
     e38:	08bd8010 	popeq	{r4, pc}
     e3c:	e5d41004 	ldrb	r1, [r4, #4]
     e40:	e59f0024 	ldr	r0, [pc, #36]	; e6c <disp_cmd52+0xac>
     e44:	e8bd4010 	pop	{r4, lr}
     e48:	eafffffe 	b	0 <printf>
     e4c:	e59f101c 	ldr	r1, [pc, #28]	; e70 <disp_cmd52+0xb0>
     e50:	eaffffeb 	b	e04 <disp_cmd52+0x44>
     e54:	00000014 	.word	0x00000014
     e58:	00000010 	.word	0x00000010
     e5c:	00000030 	.word	0x00000030
     e60:	00000028 	.word	0x00000028
     e64:	00000018 	.word	0x00000018
     e68:	00000034 	.word	0x00000034
     e6c:	0000003c 	.word	0x0000003c
     e70:	00000020 	.word	0x00000020

00000e74 <disp_rsp52>:
     e74:	e1a03000 	mov	r3, r0
     e78:	e59f0008 	ldr	r0, [pc, #8]	; e88 <disp_rsp52+0x14>
     e7c:	e5d32004 	ldrb	r2, [r3, #4]
     e80:	e5d31003 	ldrb	r1, [r3, #3]
     e84:	eafffffe 	b	0 <printf>
     e88:	00000044 	.word	0x00000044

00000e8c <disp_cmd53>:
     e8c:	e92d4070 	push	{r4, r5, r6, lr}
     e90:	e1a04000 	mov	r4, r0
     e94:	e5d03003 	ldrb	r3, [r0, #3]
     e98:	e5d00001 	ldrb	r0, [r0, #1]
     e9c:	e5d45004 	ldrb	r5, [r4, #4]
     ea0:	e59f208c 	ldr	r2, [pc, #140]	; f34 <disp_cmd53+0xa8>
     ea4:	e3100080 	tst	r0, #128	; 0x80
     ea8:	e2033001 	and	r3, r3, #1
     eac:	e59f1084 	ldr	r1, [pc, #132]	; f38 <disp_cmd53+0xac>
     eb0:	e59f0084 	ldr	r0, [pc, #132]	; f3c <disp_cmd53+0xb0>
     eb4:	01a01002 	moveq	r1, r2
     eb8:	e0855403 	add	r5, r5, r3, lsl #8
     ebc:	ebfffffe 	bl	0 <printf>
     ec0:	e5d41001 	ldrb	r1, [r4, #1]
     ec4:	e2111070 	ands	r1, r1, #112	; 0x70
     ec8:	0a000017 	beq	f2c <disp_cmd53+0xa0>
     ecc:	e59f306c 	ldr	r3, [pc, #108]	; f40 <disp_cmd53+0xb4>
     ed0:	e59f206c 	ldr	r2, [pc, #108]	; f44 <disp_cmd53+0xb8>
     ed4:	e3510010 	cmp	r1, #16
     ed8:	01a01003 	moveq	r1, r3
     edc:	11a01002 	movne	r1, r2
     ee0:	e59f0054 	ldr	r0, [pc, #84]	; f3c <disp_cmd53+0xb0>
     ee4:	ebfffffe 	bl	0 <printf>
     ee8:	e5d40001 	ldrb	r0, [r4, #1]
     eec:	e5d4e002 	ldrb	lr, [r4, #2]
     ef0:	e5d41003 	ldrb	r1, [r4, #3]
     ef4:	e2003003 	and	r3, r0, #3
     ef8:	e59fc048 	ldr	ip, [pc, #72]	; f48 <disp_cmd53+0xbc>
     efc:	e3100008 	tst	r0, #8
     f00:	e1a03783 	lsl	r3, r3, #15
     f04:	e183338e 	orr	r3, r3, lr, lsl #7
     f08:	e59f203c 	ldr	r2, [pc, #60]	; f4c <disp_cmd53+0xc0>
     f0c:	01a0200c 	moveq	r2, ip
     f10:	e3550000 	cmp	r5, #0
     f14:	e18310a1 	orr	r1, r3, r1, lsr #1
     f18:	e59f0030 	ldr	r0, [pc, #48]	; f50 <disp_cmd53+0xc4>
     f1c:	11a03005 	movne	r3, r5
     f20:	03a03c02 	moveq	r3, #512	; 0x200
     f24:	e8bd4070 	pop	{r4, r5, r6, lr}
     f28:	eafffffe 	b	0 <printf>
     f2c:	e59f1020 	ldr	r1, [pc, #32]	; f54 <disp_cmd53+0xc8>
     f30:	eaffffea 	b	ee0 <disp_cmd53+0x54>
     f34:	00000014 	.word	0x00000014
     f38:	00000010 	.word	0x00000010
     f3c:	00000030 	.word	0x00000030
     f40:	00000028 	.word	0x00000028
     f44:	00000018 	.word	0x00000018
     f48:	00000064 	.word	0x00000064
     f4c:	0000005c 	.word	0x0000005c
     f50:	00000068 	.word	0x00000068
     f54:	00000020 	.word	0x00000020

00000f58 <disp_msg>:
     f58:	e92d41f0 	push	{r4, r5, r6, r7, r8, lr}
     f5c:	e1a05000 	mov	r5, r0
     f60:	e59fc148 	ldr	ip, [pc, #328]	; 10b0 <disp_msg+0x158>
     f64:	e1a04000 	mov	r4, r0
     f68:	e1a02005 	mov	r2, r5
     f6c:	e2800005 	add	r0, r0, #5
     f70:	e3a01000 	mov	r1, #0
     f74:	e4d23001 	ldrb	r3, [r2], #1
     f78:	e0233001 	eor	r3, r3, r1
     f7c:	e1520000 	cmp	r2, r0
     f80:	e7dc1003 	ldrb	r1, [ip, r3]
     f84:	1afffffa 	bne	f74 <disp_msg+0x1c>
     f88:	e3816001 	orr	r6, r1, #1
     f8c:	e2857006 	add	r7, r5, #6
     f90:	e4d41001 	ldrb	r1, [r4], #1
     f94:	e59f0118 	ldr	r0, [pc, #280]	; 10b4 <disp_msg+0x15c>
     f98:	ebfffffe 	bl	0 <printf>
     f9c:	e1540007 	cmp	r4, r7
     fa0:	1afffffa 	bne	f90 <disp_msg+0x38>
     fa4:	e5d51005 	ldrb	r1, [r5, #5]
     fa8:	e59f2108 	ldr	r2, [pc, #264]	; 10b8 <disp_msg+0x160>
     fac:	e59f3108 	ldr	r3, [pc, #264]	; 10bc <disp_msg+0x164>
     fb0:	e1510006 	cmp	r1, r6
     fb4:	11a01002 	movne	r1, r2
     fb8:	01a01003 	moveq	r1, r3
     fbc:	e59f00fc 	ldr	r0, [pc, #252]	; 10c0 <disp_msg+0x168>
     fc0:	ebfffffe 	bl	0 <printf>
     fc4:	e5d53002 	ldrb	r3, [r5, #2]
     fc8:	e5d52001 	ldrb	r2, [r5, #1]
     fcc:	e5d50003 	ldrb	r0, [r5, #3]
     fd0:	e5d5c004 	ldrb	ip, [r5, #4]
     fd4:	e1821403 	orr	r1, r2, r3, lsl #8
     fd8:	e5d52000 	ldrb	r2, [r5]
     fdc:	e1813800 	orr	r3, r1, r0, lsl #16
     fe0:	e1830c0c 	orr	r0, r3, ip, lsl #24
     fe4:	e59fe0d8 	ldr	lr, [pc, #216]	; 10c4 <disp_msg+0x16c>
     fe8:	e1a0cc20 	lsr	ip, r0, #24
     fec:	e1a03400 	lsl	r3, r0, #8
     ff0:	e18ccc00 	orr	ip, ip, r0, lsl #24
     ff4:	e20338ff 	and	r3, r3, #16711680	; 0xff0000
     ff8:	e1a00420 	lsr	r0, r0, #8
     ffc:	e3120040 	tst	r2, #64	; 0x40
    1000:	e18c3003 	orr	r3, ip, r3
    1004:	e2000cff 	and	r0, r0, #65280	; 0xff00
    1008:	e1833000 	orr	r3, r3, r0
    100c:	e59f10b4 	ldr	r1, [pc, #180]	; 10c8 <disp_msg+0x170>
    1010:	e202203f 	and	r2, r2, #63	; 0x3f
    1014:	01a0100e 	moveq	r1, lr
    1018:	e59f00ac 	ldr	r0, [pc, #172]	; 10cc <disp_msg+0x174>
    101c:	ebfffffe 	bl	0 <printf>
    1020:	e5d52000 	ldrb	r2, [r5]
    1024:	e202303f 	and	r3, r2, #63	; 0x3f
    1028:	e3530034 	cmp	r3, #52	; 0x34
    102c:	0a00000c 	beq	1064 <disp_msg+0x10c>
    1030:	e3530035 	cmp	r3, #53	; 0x35
    1034:	0a000002 	beq	1044 <disp_msg+0xec>
    1038:	e3a0000a 	mov	r0, #10
    103c:	e8bd41f0 	pop	{r4, r5, r6, r7, r8, lr}
    1040:	eafffffe 	b	0 <putchar>
    1044:	e3120040 	tst	r2, #64	; 0x40
    1048:	1a000013 	bne	109c <disp_msg+0x144>
    104c:	e5d51003 	ldrb	r1, [r5, #3]
    1050:	e59f0078 	ldr	r0, [pc, #120]	; 10d0 <disp_msg+0x178>
    1054:	ebfffffe 	bl	0 <printf>
    1058:	e3a0000a 	mov	r0, #10
    105c:	e8bd41f0 	pop	{r4, r5, r6, r7, r8, lr}
    1060:	eafffffe 	b	0 <putchar>
    1064:	e3120040 	tst	r2, #64	; 0x40
    1068:	0a000004 	beq	1080 <disp_msg+0x128>
    106c:	e1a00005 	mov	r0, r5
    1070:	ebfffffe 	bl	dc0 <disp_cmd52>
    1074:	e5d52000 	ldrb	r2, [r5]
    1078:	e202303f 	and	r3, r2, #63	; 0x3f
    107c:	eaffffeb 	b	1030 <disp_msg+0xd8>
    1080:	e5d52004 	ldrb	r2, [r5, #4]
    1084:	e5d51003 	ldrb	r1, [r5, #3]
    1088:	e59f0044 	ldr	r0, [pc, #68]	; 10d4 <disp_msg+0x17c>
    108c:	ebfffffe 	bl	0 <printf>
    1090:	e5d52000 	ldrb	r2, [r5]
    1094:	e202303f 	and	r3, r2, #63	; 0x3f
    1098:	eaffffe4 	b	1030 <disp_msg+0xd8>
    109c:	e1a00005 	mov	r0, r5
    10a0:	ebfffffe 	bl	e8c <disp_cmd53>
    10a4:	e3a0000a 	mov	r0, #10
    10a8:	e8bd41f0 	pop	{r4, r5, r6, r7, r8, lr}
    10ac:	eafffffe 	b	0 <putchar>
	...
    10b8:	0000000c 	.word	0x0000000c
    10bc:	00000008 	.word	0x00000008
    10c0:	0000007c 	.word	0x0000007c
    10c4:	00000078 	.word	0x00000078
    10c8:	00000074 	.word	0x00000074
    10cc:	00000080 	.word	0x00000080
    10d0:	00000090 	.word	0x00000090
    10d4:	00000044 	.word	0x00000044

000010d8 <disp_rsp53>:
    10d8:	e5d01003 	ldrb	r1, [r0, #3]
    10dc:	e59f0000 	ldr	r0, [pc]	; 10e4 <disp_rsp53+0xc>
    10e0:	eafffffe 	b	0 <printf>
    10e4:	00000090 	.word	0x00000090

000010e8 <log_enable>:
    10e8:	e59f3004 	ldr	r3, [pc, #4]	; 10f4 <log_enable+0xc>
    10ec:	e5830000 	str	r0, [r3]
    10f0:	e12fff1e 	bx	lr
    10f4:	00000000 	.word	0x00000000

000010f8 <log_incr>:
    10f8:	e92d4030 	push	{r4, r5, lr}
    10fc:	e3a00032 	mov	r0, #50	; 0x32
    1100:	e59fe050 	ldr	lr, [pc, #80]	; 1158 <log_incr+0x60>
    1104:	e59fc050 	ldr	ip, [pc, #80]	; 115c <log_incr+0x64>
    1108:	e59f4050 	ldr	r4, [pc, #80]	; 1160 <log_incr+0x68>
    110c:	e59e1000 	ldr	r1, [lr]
    1110:	e2811001 	add	r1, r1, #1
    1114:	e5945000 	ldr	r5, [r4]
    1118:	e0c3219c 	smull	r2, r3, ip, r1
    111c:	e1a02fc1 	asr	r2, r1, #31
    1120:	e0623243 	rsb	r3, r2, r3, asr #4
    1124:	e0030390 	mul	r3, r0, r3
    1128:	e0633001 	rsb	r3, r3, r1
    112c:	e1530005 	cmp	r3, r5
    1130:	e58e3000 	str	r3, [lr]
    1134:	18bd8030 	popne	{r4, r5, pc}
    1138:	e2833001 	add	r3, r3, #1
    113c:	e0cc239c 	smull	r2, ip, ip, r3
    1140:	e1a02fc3 	asr	r2, r3, #31
    1144:	e062c24c 	rsb	ip, r2, ip, asr #4
    1148:	e0000c90 	mul	r0, r0, ip
    114c:	e0603003 	rsb	r3, r0, r3
    1150:	e5843000 	str	r3, [r4]
    1154:	e8bd8030 	pop	{r4, r5, pc}
    1158:	00000000 	.word	0x00000000
    115c:	51eb851f 	.word	0x51eb851f
    1160:	00000000 	.word	0x00000000

00001164 <log_msg>:
    1164:	e59f300c 	ldr	r3, [pc, #12]	; 1178 <log_msg+0x14>
    1168:	e5933000 	ldr	r3, [r3]
    116c:	e3530000 	cmp	r3, #0
    1170:	012fff1e 	bxeq	lr
    1174:	eafffba1 	b	0 <log_msg.part.2>
    1178:	00000000 	.word	0x00000000

0000117c <log_data>:
    117c:	e59f30c8 	ldr	r3, [pc, #200]	; 124c <log_data+0xd0>
    1180:	e3510006 	cmp	r1, #6
    1184:	e92d41f0 	push	{r4, r5, r6, r7, r8, lr}
    1188:	b1a07001 	movlt	r7, r1
    118c:	e5933000 	ldr	r3, [r3]
    1190:	a3a07006 	movge	r7, #6
    1194:	e3530001 	cmp	r3, #1
    1198:	d8bd81f0 	pople	{r4, r5, r6, r7, r8, pc}
    119c:	e3510000 	cmp	r1, #0
    11a0:	e28130ff 	add	r3, r1, #255	; 0xff
    11a4:	e59f40a4 	ldr	r4, [pc, #164]	; 1250 <log_data+0xd4>
    11a8:	a1a03001 	movge	r3, r1
    11ac:	e59f60a0 	ldr	r6, [pc, #160]	; 1254 <log_data+0xd8>
    11b0:	e1a03443 	asr	r3, r3, #8
    11b4:	e5945000 	ldr	r5, [r4]
    11b8:	e1e03c83 	mvn	r3, r3, lsl #25
    11bc:	e3520000 	cmp	r2, #0
    11c0:	13a0e040 	movne	lr, #64	; 0x40
    11c4:	03a0e000 	moveq	lr, #0
    11c8:	e1a08185 	lsl	r8, r5, #3
    11cc:	e1e03ca3 	mvn	r3, r3, lsr #25
    11d0:	e18e3003 	orr	r3, lr, r3
    11d4:	e086e008 	add	lr, r6, r8
    11d8:	e1a0c001 	mov	ip, r1
    11dc:	e1a01000 	mov	r1, r0
    11e0:	e2880002 	add	r0, r8, #2
    11e4:	e7c63185 	strb	r3, [r6, r5, lsl #3]
    11e8:	e1a02007 	mov	r2, r7
    11ec:	e5cec001 	strb	ip, [lr, #1]
    11f0:	e0860000 	add	r0, r6, r0
    11f4:	ebfffffe 	bl	0 <memcpy>
    11f8:	e59f0058 	ldr	r0, [pc, #88]	; 1258 <log_data+0xdc>
    11fc:	e2855001 	add	r5, r5, #1
    1200:	e3a01032 	mov	r1, #50	; 0x32
    1204:	e0c32590 	smull	r2, r3, r0, r5
    1208:	e59fc04c 	ldr	ip, [pc, #76]	; 125c <log_data+0xe0>
    120c:	e1a02fc5 	asr	r2, r5, #31
    1210:	e0623243 	rsb	r3, r2, r3, asr #4
    1214:	e59c2000 	ldr	r2, [ip]
    1218:	e0030391 	mul	r3, r1, r3
    121c:	e0633005 	rsb	r3, r3, r5
    1220:	e1530002 	cmp	r3, r2
    1224:	e5843000 	str	r3, [r4]
    1228:	18bd81f0 	popne	{r4, r5, r6, r7, r8, pc}
    122c:	e2833001 	add	r3, r3, #1
    1230:	e0c02390 	smull	r2, r0, r0, r3
    1234:	e1a02fc3 	asr	r2, r3, #31
    1238:	e0620240 	rsb	r0, r2, r0, asr #4
    123c:	e0010091 	mul	r1, r1, r0
    1240:	e0613003 	rsb	r3, r1, r3
    1244:	e58c3000 	str	r3, [ip]
    1248:	e8bd81f0 	pop	{r4, r5, r6, r7, r8, pc}
	...
    1258:	51eb851f 	.word	0x51eb851f
    125c:	00000000 	.word	0x00000000

00001260 <sdio_cmd53_write>:
    1260:	e92d40f0 	push	{r4, r5, r6, r7, lr}
    1264:	e1a05003 	mov	r5, r3
    1268:	e2000007 	and	r0, r0, #7
    126c:	e1a037c1 	asr	r3, r1, #15
    1270:	e201e07f 	and	lr, r1, #127	; 0x7f
    1274:	e2033003 	and	r3, r3, #3
    1278:	e1a0c445 	asr	ip, r5, #8
    127c:	e24dd014 	sub	sp, sp, #20
    1280:	e1830200 	orr	r0, r3, r0, lsl #4
    1284:	e20c3001 	and	r3, ip, #1
    1288:	e183308e 	orr	r3, r3, lr, lsl #1
    128c:	e3800084 	orr	r0, r0, #132	; 0x84
    1290:	e28d7010 	add	r7, sp, #16
    1294:	e1a013c1 	asr	r1, r1, #7
    1298:	e3a04000 	mov	r4, #0
    129c:	e5cd0009 	strb	r0, [sp, #9]
    12a0:	e5cd300b 	strb	r3, [sp, #11]
    12a4:	e3a00002 	mov	r0, #2
    12a8:	e3a03075 	mov	r3, #117	; 0x75
    12ac:	e1a06002 	mov	r6, r2
    12b0:	e3a02001 	mov	r2, #1
    12b4:	e58d400c 	str	r4, [sp, #12]
    12b8:	e5cd100a 	strb	r1, [sp, #10]
    12bc:	e5cd3008 	strb	r3, [sp, #8]
    12c0:	e5cd500c 	strb	r5, [sp, #12]
    12c4:	e5672003 	strb	r2, [r7, #-3]!
    12c8:	ebfffffe 	bl	4d4 <clk_0>
    12cc:	e59f0094 	ldr	r0, [pc, #148]	; 1368 <sdio_cmd53_write+0x108>
    12d0:	e1a03004 	mov	r3, r4
    12d4:	e28d1008 	add	r1, sp, #8
    12d8:	e4d12001 	ldrb	r2, [r1], #1
    12dc:	e0233002 	eor	r3, r3, r2
    12e0:	e1510007 	cmp	r1, r7
    12e4:	e7d03003 	ldrb	r3, [r0, r3]
    12e8:	1afffffa 	bne	12d8 <sdio_cmd53_write+0x78>
    12ec:	e59f7078 	ldr	r7, [pc, #120]	; 136c <sdio_cmd53_write+0x10c>
    12f0:	e3833001 	orr	r3, r3, #1
    12f4:	e5cd300d 	strb	r3, [sp, #13]
    12f8:	e5973000 	ldr	r3, [r7]
    12fc:	e3530000 	cmp	r3, #0
    1300:	1a000015 	bne	135c <sdio_cmd53_write+0xfc>
    1304:	e28d0008 	add	r0, sp, #8
    1308:	e3a01030 	mov	r1, #48	; 0x30
    130c:	ebfffffe 	bl	88 <sdio_cmd_write>
    1310:	e1a02005 	mov	r2, r5
    1314:	e1a01006 	mov	r1, r6
    1318:	e1a0000d 	mov	r0, sp
    131c:	ebfffffe 	bl	68c <sdio_rsp_block_write>
    1320:	e1a04000 	mov	r4, r0
    1324:	e3a00010 	mov	r0, #16
    1328:	ebfffffe 	bl	4d4 <clk_0>
    132c:	e5973000 	ldr	r3, [r7]
    1330:	e3530000 	cmp	r3, #0
    1334:	0a000001 	beq	1340 <sdio_cmd53_write+0xe0>
    1338:	e1a0000d 	mov	r0, sp
    133c:	ebfffb2f 	bl	0 <log_msg.part.2>
    1340:	e1a00006 	mov	r0, r6
    1344:	e3a02001 	mov	r2, #1
    1348:	e1a01004 	mov	r1, r4
    134c:	ebfffffe 	bl	117c <log_data>
    1350:	e1a00004 	mov	r0, r4
    1354:	e28dd014 	add	sp, sp, #20
    1358:	e8bd80f0 	pop	{r4, r5, r6, r7, pc}
    135c:	e28d0008 	add	r0, sp, #8
    1360:	ebfffb26 	bl	0 <log_msg.part.2>
    1364:	eaffffe6 	b	1304 <sdio_cmd53_write+0xa4>
	...

00001370 <sdio_bak_write32>:
    1370:	e92d4030 	push	{r4, r5, lr}
    1374:	e24dd00c 	sub	sp, sp, #12
    1378:	e28d4008 	add	r4, sp, #8
    137c:	e1a05000 	mov	r5, r0
    1380:	e5241004 	str	r1, [r4, #-4]!
    1384:	ebfffffe 	bl	928 <sdio_bak_window>
    1388:	e1a02004 	mov	r2, r4
    138c:	e3851902 	orr	r1, r5, #32768	; 0x8000
    1390:	e3a03004 	mov	r3, #4
    1394:	e3a00001 	mov	r0, #1
    1398:	ebfffffe 	bl	1260 <sdio_cmd53_write>
    139c:	e28dd00c 	add	sp, sp, #12
    13a0:	e8bd8030 	pop	{r4, r5, pc}

000013a4 <sdio_cmd53_read>:
    13a4:	e92d40f0 	push	{r4, r5, r6, r7, lr}
    13a8:	e1a05003 	mov	r5, r3
    13ac:	e1a037c1 	asr	r3, r1, #15
    13b0:	e201e07f 	and	lr, r1, #127	; 0x7f
    13b4:	e2000007 	and	r0, r0, #7
    13b8:	e2033003 	and	r3, r3, #3
    13bc:	e1a0c445 	asr	ip, r5, #8
    13c0:	e24dd01c 	sub	sp, sp, #28
    13c4:	e3833004 	orr	r3, r3, #4
    13c8:	e20cc001 	and	ip, ip, #1
    13cc:	e1830200 	orr	r0, r3, r0, lsl #4
    13d0:	e28d7018 	add	r7, sp, #24
    13d4:	e18c308e 	orr	r3, ip, lr, lsl #1
    13d8:	e1a013c1 	asr	r1, r1, #7
    13dc:	e3a04000 	mov	r4, #0
    13e0:	e5cd0011 	strb	r0, [sp, #17]
    13e4:	e5cd3013 	strb	r3, [sp, #19]
    13e8:	e3a00002 	mov	r0, #2
    13ec:	e3a03075 	mov	r3, #117	; 0x75
    13f0:	e1a06002 	mov	r6, r2
    13f4:	e3a02001 	mov	r2, #1
    13f8:	e58d4014 	str	r4, [sp, #20]
    13fc:	e5cd1012 	strb	r1, [sp, #18]
    1400:	e5cd3010 	strb	r3, [sp, #16]
    1404:	e5cd5014 	strb	r5, [sp, #20]
    1408:	e5672003 	strb	r2, [r7, #-3]!
    140c:	ebfffffe 	bl	4d4 <clk_0>
    1410:	e59f00a4 	ldr	r0, [pc, #164]	; 14bc <sdio_cmd53_read+0x118>
    1414:	e1a03004 	mov	r3, r4
    1418:	e28d1010 	add	r1, sp, #16
    141c:	e4d12001 	ldrb	r2, [r1], #1
    1420:	e0233002 	eor	r3, r3, r2
    1424:	e1510007 	cmp	r1, r7
    1428:	e7d03003 	ldrb	r3, [r0, r3]
    142c:	1afffffa 	bne	141c <sdio_cmd53_read+0x78>
    1430:	e59f7088 	ldr	r7, [pc, #136]	; 14c0 <sdio_cmd53_read+0x11c>
    1434:	e3833001 	orr	r3, r3, #1
    1438:	e5cd3015 	strb	r3, [sp, #21]
    143c:	e5973000 	ldr	r3, [r7]
    1440:	e3530000 	cmp	r3, #0
    1444:	1a000019 	bne	14b0 <sdio_cmd53_read+0x10c>
    1448:	e28d0010 	add	r0, sp, #16
    144c:	e3a01030 	mov	r1, #48	; 0x30
    1450:	ebfffffe 	bl	88 <sdio_cmd_write>
    1454:	e1a0300d 	mov	r3, sp
    1458:	e1a02005 	mov	r2, r5
    145c:	e1a01006 	mov	r1, r6
    1460:	e28d0008 	add	r0, sp, #8
    1464:	ebfffffe 	bl	23c <sdio_rsp_block_read>
    1468:	e1a04000 	mov	r4, r0
    146c:	e3a00001 	mov	r0, #1
    1470:	ebfffffe 	bl	4d4 <clk_0>
    1474:	e5973000 	ldr	r3, [r7]
    1478:	e3530000 	cmp	r3, #0
    147c:	0a000001 	beq	1488 <sdio_cmd53_read+0xe4>
    1480:	e28d0008 	add	r0, sp, #8
    1484:	ebfffadd 	bl	0 <log_msg.part.2>
    1488:	e89d000c 	ldm	sp, {r2, r3}
    148c:	e1a00006 	mov	r0, r6
    1490:	e1a01004 	mov	r1, r4
    1494:	e1923003 	orrs	r3, r2, r3
    1498:	03a02001 	moveq	r2, #1
    149c:	13a02000 	movne	r2, #0
    14a0:	ebfffffe 	bl	117c <log_data>
    14a4:	e1a00004 	mov	r0, r4
    14a8:	e28dd01c 	add	sp, sp, #28
    14ac:	e8bd80f0 	pop	{r4, r5, r6, r7, pc}
    14b0:	e28d0010 	add	r0, sp, #16
    14b4:	ebfffad1 	bl	0 <log_msg.part.2>
    14b8:	eaffffe2 	b	1448 <sdio_cmd53_read+0xa4>
	...

000014c4 <sdio_bak_read32>:
    14c4:	e92d4030 	push	{r4, r5, lr}
    14c8:	e24dd00c 	sub	sp, sp, #12
    14cc:	e1a05000 	mov	r5, r0
    14d0:	e1a04001 	mov	r4, r1
    14d4:	ebfffffe 	bl	928 <sdio_bak_window>
    14d8:	e3a03004 	mov	r3, #4
    14dc:	e08d2003 	add	r2, sp, r3
    14e0:	e3851902 	orr	r1, r5, #32768	; 0x8000
    14e4:	e3a00001 	mov	r0, #1
    14e8:	ebfffffe 	bl	13a4 <sdio_cmd53_read>
    14ec:	e59d3004 	ldr	r3, [sp, #4]
    14f0:	e5843000 	str	r3, [r4]
    14f4:	e28dd00c 	add	sp, sp, #12
    14f8:	e8bd8030 	pop	{r4, r5, pc}

000014fc <sdio_write_blocks>:
    14fc:	e92d4ff0 	push	{r4, r5, r6, r7, r8, r9, sl, fp, lr}
    1500:	e1a05003 	mov	r5, r3
    1504:	e2000007 	and	r0, r0, #7
    1508:	e1a037c1 	asr	r3, r1, #15
    150c:	e201e07f 	and	lr, r1, #127	; 0x7f
    1510:	e2033003 	and	r3, r3, #3
    1514:	e1a0c445 	asr	ip, r5, #8
    1518:	e24dd014 	sub	sp, sp, #20
    151c:	e1830200 	orr	r0, r3, r0, lsl #4
    1520:	e20c3001 	and	r3, ip, #1
    1524:	e183308e 	orr	r3, r3, lr, lsl #1
    1528:	e380008c 	orr	r0, r0, #140	; 0x8c
    152c:	e28d7010 	add	r7, sp, #16
    1530:	e1a04002 	mov	r4, r2
    1534:	e3a02001 	mov	r2, #1
    1538:	e1a013c1 	asr	r1, r1, #7
    153c:	e3a06000 	mov	r6, #0
    1540:	e5cd0009 	strb	r0, [sp, #9]
    1544:	e5cd300b 	strb	r3, [sp, #11]
    1548:	e1a00002 	mov	r0, r2
    154c:	e3a03075 	mov	r3, #117	; 0x75
    1550:	e58d600c 	str	r6, [sp, #12]
    1554:	e5cd100a 	strb	r1, [sp, #10]
    1558:	e5cd3008 	strb	r3, [sp, #8]
    155c:	e5cd500c 	strb	r5, [sp, #12]
    1560:	e5672003 	strb	r2, [r7, #-3]!
    1564:	ebfffffe 	bl	4d4 <clk_0>
    1568:	e59f01f0 	ldr	r0, [pc, #496]	; 1760 <sdio_write_blocks+0x264>
    156c:	e1a03006 	mov	r3, r6
    1570:	e28d1008 	add	r1, sp, #8
    1574:	e4d12001 	ldrb	r2, [r1], #1
    1578:	e0233002 	eor	r3, r3, r2
    157c:	e1510007 	cmp	r1, r7
    1580:	e7d03003 	ldrb	r3, [r0, r3]
    1584:	1afffffa 	bne	1574 <sdio_write_blocks+0x78>
    1588:	e59f91d4 	ldr	r9, [pc, #468]	; 1764 <sdio_write_blocks+0x268>
    158c:	e3833001 	orr	r3, r3, #1
    1590:	e5cd300d 	strb	r3, [sp, #13]
    1594:	e5993000 	ldr	r3, [r9]
    1598:	e3530000 	cmp	r3, #0
    159c:	1a000067 	bne	1740 <sdio_write_blocks+0x244>
    15a0:	e28d0008 	add	r0, sp, #8
    15a4:	e3a01030 	mov	r1, #48	; 0x30
    15a8:	ebfffffe 	bl	88 <sdio_cmd_write>
    15ac:	e1a0000d 	mov	r0, sp
    15b0:	e3a02023 	mov	r2, #35	; 0x23
    15b4:	e3a01030 	mov	r1, #48	; 0x30
    15b8:	ebfffffe 	bl	114 <sdio_rsp_read>
    15bc:	e3500000 	cmp	r0, #0
    15c0:	01a08000 	moveq	r8, r0
    15c4:	0a000058 	beq	172c <sdio_write_blocks+0x230>
    15c8:	e5993000 	ldr	r3, [r9]
    15cc:	e3530000 	cmp	r3, #0
    15d0:	1a00005d 	bne	174c <sdio_write_blocks+0x250>
    15d4:	e3a0200f 	mov	r2, #15
    15d8:	e3a01004 	mov	r1, #4
    15dc:	e3a00024 	mov	r0, #36	; 0x24
    15e0:	ebfffffe 	bl	0 <gpio_write>
    15e4:	e3a01001 	mov	r1, #1
    15e8:	e3a00024 	mov	r0, #36	; 0x24
    15ec:	ebfffffe 	bl	0 <gpio_mode>
    15f0:	e3a01001 	mov	r1, #1
    15f4:	e3a00025 	mov	r0, #37	; 0x25
    15f8:	ebfffffe 	bl	0 <gpio_mode>
    15fc:	e3a01001 	mov	r1, #1
    1600:	e3a00026 	mov	r0, #38	; 0x26
    1604:	ebfffffe 	bl	0 <gpio_mode>
    1608:	e3a01001 	mov	r1, #1
    160c:	e3a00027 	mov	r0, #39	; 0x27
    1610:	ebfffffe 	bl	0 <gpio_mode>
    1614:	e3550000 	cmp	r5, #0
    1618:	da00004e 	ble	1758 <sdio_write_blocks+0x25c>
    161c:	e2858001 	add	r8, r5, #1
    1620:	e59f7140 	ldr	r7, [pc, #320]	; 1768 <sdio_write_blocks+0x26c>
    1624:	e59f6140 	ldr	r6, [pc, #320]	; 176c <sdio_write_blocks+0x270>
    1628:	e59fa140 	ldr	sl, [pc, #320]	; 1770 <sdio_write_blocks+0x274>
    162c:	e3a05001 	mov	r5, #1
    1630:	ea000003 	b	1644 <sdio_write_blocks+0x148>
    1634:	ebfffffe 	bl	4d4 <clk_0>
    1638:	e1550008 	cmp	r5, r8
    163c:	e2844040 	add	r4, r4, #64	; 0x40
    1640:	0a00002d 	beq	16fc <sdio_write_blocks+0x200>
    1644:	e3a01040 	mov	r1, #64	; 0x40
    1648:	e1a00004 	mov	r0, r4
    164c:	ebfffffe 	bl	574 <sdio_block_out>
    1650:	e3a02001 	mov	r2, #1
    1654:	e3a01040 	mov	r1, #64	; 0x40
    1658:	e1a00004 	mov	r0, r4
    165c:	ebfffffe 	bl	117c <log_data>
    1660:	e3a02024 	mov	r2, #36	; 0x24
    1664:	e3a01008 	mov	r1, #8
    1668:	e1a0000d 	mov	r0, sp
    166c:	ebfffffe 	bl	114 <sdio_rsp_read>
    1670:	e5993000 	ldr	r3, [r9]
    1674:	e3a0c032 	mov	ip, #50	; 0x32
    1678:	e3530001 	cmp	r3, #1
    167c:	e3a00002 	mov	r0, #2
    1680:	e2855001 	add	r5, r5, #1
    1684:	daffffea 	ble	1634 <sdio_write_blocks+0x138>
    1688:	e5972000 	ldr	r2, [r7]
    168c:	e59fb0e0 	ldr	fp, [pc, #224]	; 1774 <sdio_write_blocks+0x278>
    1690:	e2821001 	add	r1, r2, #1
    1694:	e5dde000 	ldrb	lr, [sp]
    1698:	e0cb319b 	smull	r3, fp, fp, r1
    169c:	e3e03001 	mvn	r3, #1
    16a0:	e7c63182 	strb	r3, [r6, r2, lsl #3]
    16a4:	e1a03fc1 	asr	r3, r1, #31
    16a8:	e063324b 	rsb	r3, r3, fp, asr #4
    16ac:	e0862182 	add	r2, r6, r2, lsl #3
    16b0:	e003039c 	mul	r3, ip, r3
    16b4:	e5c2e001 	strb	lr, [r2, #1]
    16b8:	e59a2000 	ldr	r2, [sl]
    16bc:	e0633001 	rsb	r3, r3, r1
    16c0:	e1530002 	cmp	r3, r2
    16c4:	e5873000 	str	r3, [r7]
    16c8:	1affffd9 	bne	1634 <sdio_write_blocks+0x138>
    16cc:	e59f20a0 	ldr	r2, [pc, #160]	; 1774 <sdio_write_blocks+0x278>
    16d0:	e2833001 	add	r3, r3, #1
    16d4:	e2844040 	add	r4, r4, #64	; 0x40
    16d8:	e0c12392 	smull	r2, r1, r2, r3
    16dc:	e1a02fc3 	asr	r2, r3, #31
    16e0:	e0622241 	rsb	r2, r2, r1, asr #4
    16e4:	e00c029c 	mul	ip, ip, r2
    16e8:	e06c3003 	rsb	r3, ip, r3
    16ec:	e58a3000 	str	r3, [sl]
    16f0:	ebfffffe 	bl	4d4 <clk_0>
    16f4:	e1550008 	cmp	r5, r8
    16f8:	1affffd1 	bne	1644 <sdio_write_blocks+0x148>
    16fc:	e3a01000 	mov	r1, #0
    1700:	e3a00024 	mov	r0, #36	; 0x24
    1704:	ebfffffe 	bl	0 <gpio_mode>
    1708:	e3a01000 	mov	r1, #0
    170c:	e3a00025 	mov	r0, #37	; 0x25
    1710:	ebfffffe 	bl	0 <gpio_mode>
    1714:	e3a01000 	mov	r1, #0
    1718:	e3a00026 	mov	r0, #38	; 0x26
    171c:	ebfffffe 	bl	0 <gpio_mode>
    1720:	e3a01000 	mov	r1, #0
    1724:	e3a00027 	mov	r0, #39	; 0x27
    1728:	ebfffffe 	bl	0 <gpio_mode>
    172c:	e3a00001 	mov	r0, #1
    1730:	ebfffffe 	bl	4d4 <clk_0>
    1734:	e1a00008 	mov	r0, r8
    1738:	e28dd014 	add	sp, sp, #20
    173c:	e8bd8ff0 	pop	{r4, r5, r6, r7, r8, r9, sl, fp, pc}
    1740:	e28d0008 	add	r0, sp, #8
    1744:	ebfffa2d 	bl	0 <log_msg.part.2>
    1748:	eaffff94 	b	15a0 <sdio_write_blocks+0xa4>
    174c:	e1a0000d 	mov	r0, sp
    1750:	ebfffa2a 	bl	0 <log_msg.part.2>
    1754:	eaffff9e 	b	15d4 <sdio_write_blocks+0xd8>
    1758:	e3a08001 	mov	r8, #1
    175c:	eaffffe6 	b	16fc <sdio_write_blocks+0x200>
	...
    1774:	51eb851f 	.word	0x51eb851f

00001778 <log_data_ack>:
    1778:	e59f307c 	ldr	r3, [pc, #124]	; 17fc <log_data_ack+0x84>
    177c:	e5933000 	ldr	r3, [r3]
    1780:	e3530001 	cmp	r3, #1
    1784:	d12fff1e 	bxle	lr
    1788:	e92d41f0 	push	{r4, r5, r6, r7, r8, lr}
    178c:	e3a04032 	mov	r4, #50	; 0x32
    1790:	e59f7068 	ldr	r7, [pc, #104]	; 1800 <log_data_ack+0x88>
    1794:	e59f5068 	ldr	r5, [pc, #104]	; 1804 <log_data_ack+0x8c>
    1798:	e59f6068 	ldr	r6, [pc, #104]	; 1808 <log_data_ack+0x90>
    179c:	e597e000 	ldr	lr, [r7]
    17a0:	e59f1064 	ldr	r1, [pc, #100]	; 180c <log_data_ack+0x94>
    17a4:	e28ec001 	add	ip, lr, #1
    17a8:	e5968000 	ldr	r8, [r6]
    17ac:	e0c32c95 	smull	r2, r3, r5, ip
    17b0:	e1a02fcc 	asr	r2, ip, #31
    17b4:	e0623243 	rsb	r3, r2, r3, asr #4
    17b8:	e3e02001 	mvn	r2, #1
    17bc:	e0030394 	mul	r3, r4, r3
    17c0:	e7c1218e 	strb	r2, [r1, lr, lsl #3]
    17c4:	e063300c 	rsb	r3, r3, ip
    17c8:	e081118e 	add	r1, r1, lr, lsl #3
    17cc:	e1530008 	cmp	r3, r8
    17d0:	e5c10001 	strb	r0, [r1, #1]
    17d4:	e5873000 	str	r3, [r7]
    17d8:	18bd81f0 	popne	{r4, r5, r6, r7, r8, pc}
    17dc:	e2833001 	add	r3, r3, #1
    17e0:	e0c52395 	smull	r2, r5, r5, r3
    17e4:	e1a02fc3 	asr	r2, r3, #31
    17e8:	e0625245 	rsb	r5, r2, r5, asr #4
    17ec:	e0040594 	mul	r4, r4, r5
    17f0:	e0643003 	rsb	r3, r4, r3
    17f4:	e5863000 	str	r3, [r6]
    17f8:	e8bd81f0 	pop	{r4, r5, r6, r7, r8, pc}
	...
    1804:	51eb851f 	.word	0x51eb851f
	...

00001810 <disp_log>:
    1810:	e92d4ff8 	push	{r3, r4, r5, r6, r7, r8, r9, sl, fp, lr}
    1814:	e59f5118 	ldr	r5, [pc, #280]	; 1934 <disp_log+0x124>
    1818:	e59f6118 	ldr	r6, [pc, #280]	; 1938 <disp_log+0x128>
    181c:	e5950000 	ldr	r0, [r5]
    1820:	e5963000 	ldr	r3, [r6]
    1824:	e1500003 	cmp	r0, r3
    1828:	0a000036 	beq	1908 <disp_log+0xf8>
    182c:	e59f7108 	ldr	r7, [pc, #264]	; 193c <disp_log+0x12c>
    1830:	e59f8108 	ldr	r8, [pc, #264]	; 1940 <disp_log+0x130>
    1834:	e1a09007 	mov	r9, r7
    1838:	ea000011 	b	1884 <disp_log+0x74>
    183c:	e35400fe 	cmp	r4, #254	; 0xfe
    1840:	0a000036 	beq	1920 <disp_log+0x110>
    1844:	e3140080 	tst	r4, #128	; 0x80
    1848:	e0890180 	add	r0, r9, r0, lsl #3
    184c:	1a000012 	bne	189c <disp_log+0x8c>
    1850:	ebfffffe 	bl	f58 <disp_msg>
    1854:	e5952000 	ldr	r2, [r5]
    1858:	e3a0c032 	mov	ip, #50	; 0x32
    185c:	e2822001 	add	r2, r2, #1
    1860:	e5961000 	ldr	r1, [r6]
    1864:	e0c03298 	smull	r3, r0, r8, r2
    1868:	e1a03fc2 	asr	r3, r2, #31
    186c:	e0630240 	rsb	r0, r3, r0, asr #4
    1870:	e000009c 	mul	r0, ip, r0
    1874:	e0600002 	rsb	r0, r0, r2
    1878:	e1510000 	cmp	r1, r0
    187c:	e5850000 	str	r0, [r5]
    1880:	0a000020 	beq	1908 <disp_log+0xf8>
    1884:	e7d74180 	ldrb	r4, [r7, r0, lsl #3]
    1888:	e3540000 	cmp	r4, #0
    188c:	1affffea 	bne	183c <disp_log+0x2c>
    1890:	e59f00ac 	ldr	r0, [pc, #172]	; 1944 <disp_log+0x134>
    1894:	ebfffffe 	bl	0 <puts>
    1898:	eaffffed 	b	1854 <disp_log+0x44>
    189c:	e5d02001 	ldrb	r2, [r0, #1]
    18a0:	e204303f 	and	r3, r4, #63	; 0x3f
    18a4:	e59f009c 	ldr	r0, [pc, #156]	; 1948 <disp_log+0x138>
    18a8:	e082a403 	add	sl, r2, r3, lsl #8
    18ac:	e1a0100a 	mov	r1, sl
    18b0:	ebfffffe 	bl	0 <printf>
    18b4:	e5952000 	ldr	r2, [r5]
    18b8:	e35a0006 	cmp	sl, #6
    18bc:	b1a0300a 	movlt	r3, sl
    18c0:	a3a03006 	movge	r3, #6
    18c4:	e0892182 	add	r2, r9, r2, lsl #3
    18c8:	e282b002 	add	fp, r2, #2
    18cc:	e3530000 	cmp	r3, #0
    18d0:	11a0a003 	movne	sl, r3
    18d4:	0a000004 	beq	18ec <disp_log+0xdc>
    18d8:	e4db1001 	ldrb	r1, [fp], #1
    18dc:	e59f0068 	ldr	r0, [pc, #104]	; 194c <disp_log+0x13c>
    18e0:	ebfffffe 	bl	0 <printf>
    18e4:	e25aa001 	subs	sl, sl, #1
    18e8:	1afffffa 	bne	18d8 <disp_log+0xc8>
    18ec:	e59f305c 	ldr	r3, [pc, #92]	; 1950 <disp_log+0x140>
    18f0:	e59f205c 	ldr	r2, [pc, #92]	; 1954 <disp_log+0x144>
    18f4:	e3140040 	tst	r4, #64	; 0x40
    18f8:	11a00003 	movne	r0, r3
    18fc:	01a00002 	moveq	r0, r2
    1900:	ebfffffe 	bl	0 <puts>
    1904:	eaffffd2 	b	1854 <disp_log+0x44>
    1908:	e3a0000a 	mov	r0, #10
    190c:	ebfffffe 	bl	0 <putchar>
    1910:	ebfffffe 	bl	0 <__getreent>
    1914:	e8bd4ff8 	pop	{r3, r4, r5, r6, r7, r8, r9, sl, fp, lr}
    1918:	e5900008 	ldr	r0, [r0, #8]
    191c:	eafffffe 	b	0 <fflush>
    1920:	e0893180 	add	r3, r9, r0, lsl #3
    1924:	e59f002c 	ldr	r0, [pc, #44]	; 1958 <disp_log+0x148>
    1928:	e5d31001 	ldrb	r1, [r3, #1]
    192c:	ebfffffe 	bl	0 <printf>
    1930:	eaffffc7 	b	1854 <disp_log+0x44>
	...
    1940:	51eb851f 	.word	0x51eb851f
    1944:	0000009c 	.word	0x0000009c
    1948:	000000ac 	.word	0x000000ac
    194c:	00000000 	.word	0x00000000
    1950:	00000008 	.word	0x00000008
    1954:	0000000c 	.word	0x0000000c
    1958:	000000a0 	.word	0x000000a0

0000195c <disp_log_break>:
    195c:	e92d4010 	push	{r4, lr}
    1960:	ebfffffe 	bl	1810 <disp_log>
    1964:	e8bd4010 	pop	{r4, lr}
    1968:	eafffffe 	b	0 <gdb_break>

0000196c <osc_init>:
    196c:	e59f301c 	ldr	r3, [pc, #28]	; 1990 <osc_init+0x24>
    1970:	e59f101c 	ldr	r1, [pc, #28]	; 1994 <osc_init+0x28>
    1974:	e59f201c 	ldr	r2, [pc, #28]	; 1998 <osc_init+0x2c>
    1978:	e5831084 	str	r1, [r3, #132]	; 0x84
    197c:	e5832080 	str	r2, [r3, #128]	; 0x80
    1980:	e3a01004 	mov	r1, #4
    1984:	e3a02000 	mov	r2, #0
    1988:	e3a0002b 	mov	r0, #43	; 0x2b
    198c:	eafffffe 	b	0 <gpio_set>
    1990:	20101000 	.word	0x20101000
    1994:	5a249f00 	.word	0x5a249f00
    1998:	5a000291 	.word	0x5a000291
